
main.elf:     file format elf32-littleriscv


Disassembly of section .vectors:

00000000 <_stack_start-0x16208>:
  // external interrupts are handled by the same callback
  // until compiler supports IRQ routines
  .org 0x00
  .rept 31
  nop
  .endr
   0:	00000013          	nop
   4:	00000013          	nop
   8:	00000013          	nop
   c:	00000013          	nop
  10:	00000013          	nop
  14:	00000013          	nop
  18:	00000013          	nop
  1c:	00000013          	nop
  20:	00000013          	nop
  24:	00000013          	nop
  28:	00000013          	nop
  2c:	00000013          	nop
  30:	00000013          	nop
  34:	00000013          	nop
  38:	00000013          	nop
  3c:	00000013          	nop
  40:	00000013          	nop
  44:	00000013          	nop
  48:	00000013          	nop
  4c:	00000013          	nop
  50:	00000013          	nop
  54:	00000013          	nop
  58:	00000013          	nop
  5c:	00000013          	nop
  60:	00000013          	nop
  64:	00000013          	nop
  68:	00000013          	nop
  6c:	00000013          	nop
  70:	00000013          	nop
  74:	00000013          	nop
  78:	00000013          	nop
  jal x0, default_exc_handler
  7c:	6650306f          	j	3ee0 <default_exc_handler>

  // reset vector
  .org 0x80
  jal x0, reset_handler
  80:	6650306f          	j	3ee4 <reset_handler>

  // illegal instruction exception
  .org 0x84
  jal x0, default_exc_handler
  84:	65d0306f          	j	3ee0 <default_exc_handler>

  // ecall handler
  .org 0x88
  jal x0, default_exc_handler
  88:	6590306f          	j	3ee0 <default_exc_handler>

Disassembly of section .text:

0000008c <crypto_aead_encrypt>:

int crypto_aead_encrypt(unsigned char* c, unsigned long long* clen,
                        const unsigned char* m, unsigned long long mlen,
                        const unsigned char* ad, unsigned long long adlen,
                        const unsigned char* nsec, const unsigned char* npub,
                        const unsigned char* k) {
      8c:	f6010113          	addi	sp,sp,-160
      90:	09412423          	sw	s4,136(sp)
      94:	00070a13          	mv	s4,a4
  u32 i;
  (void)nsec;
  //unsigned long cycle_end, cycle_start ;

  // set ciphertext size
  *clen = mlen + CRYPTO_ABYTES;
      98:	01068713          	addi	a4,a3,16
                        const unsigned char* k) {
      9c:	0a812e03          	lw	t3,168(sp)
      a0:	02f12023          	sw	a5,32(sp)
  *clen = mlen + CRYPTO_ABYTES;
      a4:	00d737b3          	sltu	a5,a4,a3
                        const unsigned char* k) {
      a8:	08112e23          	sw	ra,156(sp)
      ac:	08812c23          	sw	s0,152(sp)
      b0:	08912a23          	sw	s1,148(sp)
      b4:	09212823          	sw	s2,144(sp)
      b8:	09312623          	sw	s3,140(sp)
      bc:	09512223          	sw	s5,132(sp)
      c0:	09612023          	sw	s6,128(sp)
      c4:	07712e23          	sw	s7,124(sp)
      c8:	07a12823          	sw	s10,112(sp)
      cc:	07b12623          	sw	s11,108(sp)
      d0:	07812c23          	sw	s8,120(sp)
      d4:	07912a23          	sw	s9,116(sp)
  *clen = mlen + CRYPTO_ABYTES;
      d8:	014787b3          	add	a5,a5,s4
      dc:	00e5a023          	sw	a4,0(a1)
      e0:	00f5a223          	sw	a5,4(a1)
                        const unsigned char* k) {
      e4:	00c12e23          	sw	a2,28(sp)
      e8:	00068913          	mv	s2,a3

  // load key and nonce
  to_bit_interleaving(K0, U64BIG(*(u64*)k));
      ec:	004e2603          	lw	a2,4(t3)
      f0:	000e2683          	lw	a3,0(t3)
                        const unsigned char* k) {
      f4:	00a12c23          	sw	a0,24(sp)
  to_bit_interleaving(K0, U64BIG(*(u64*)k));
      f8:	01861713          	slli	a4,a2,0x18
      fc:	0086d793          	srli	a5,a3,0x8
     100:	00f767b3          	or	a5,a4,a5
     104:	00861593          	slli	a1,a2,0x8
     108:	0186d713          	srli	a4,a3,0x18
     10c:	00e5e733          	or	a4,a1,a4
     110:	01865e93          	srli	t4,a2,0x18
                        const unsigned char* k) {
     114:	00080d93          	mv	s11,a6
  to_bit_interleaving(K0, U64BIG(*(u64*)k));
     118:	00865513          	srli	a0,a2,0x8
     11c:	00ff0837          	lui	a6,0xff0
     120:	00869613          	slli	a2,a3,0x8
     124:	000105b7          	lui	a1,0x10
     128:	f0058d13          	addi	s10,a1,-256 # ff00 <_bss_end+0xbc90>
     12c:	00c87633          	and	a2,a6,a2
     130:	01869693          	slli	a3,a3,0x18
     134:	00d66633          	or	a2,a2,a3
     138:	01a7f6b3          	and	a3,a5,s10
     13c:	00d66633          	or	a2,a2,a3
     140:	0ff77693          	andi	a3,a4,255
     144:	00d66633          	or	a2,a2,a3
     148:	ff0006b7          	lui	a3,0xff000
     14c:	00e87733          	and	a4,a6,a4
     150:	00f6f7b3          	and	a5,a3,a5
     154:	00e7e7b3          	or	a5,a5,a4
     158:	01d7e7b3          	or	a5,a5,t4
     15c:	01a57533          	and	a0,a0,s10
     160:	00a7e7b3          	or	a5,a5,a0
     164:	0017d513          	srli	a0,a5,0x1
     168:	222229b7          	lui	s3,0x22222
     16c:	22298993          	addi	s3,s3,546 # 22222222 <_stack_start+0x2220c01a>
     170:	00f54533          	xor	a0,a0,a5
     174:	01357533          	and	a0,a0,s3
     178:	00a7c7b3          	xor	a5,a5,a0
     17c:	00151513          	slli	a0,a0,0x1
     180:	00f54533          	xor	a0,a0,a5
     184:	00255713          	srli	a4,a0,0x2
     188:	0c0c17b7          	lui	a5,0xc0c1
     18c:	c0c78b13          	addi	s6,a5,-1012 # c0c0c0c <_stack_start+0xc0aaa04>
     190:	00a74733          	xor	a4,a4,a0
     194:	01677733          	and	a4,a4,s6
     198:	00e54f33          	xor	t5,a0,a4
     19c:	00271513          	slli	a0,a4,0x2
     1a0:	01e54533          	xor	a0,a0,t5
     1a4:	00f00737          	lui	a4,0xf00
     1a8:	00455e93          	srli	t4,a0,0x4
     1ac:	0f070b93          	addi	s7,a4,240 # f000f0 <_stack_start+0xee9ee8>
     1b0:	00aeceb3          	xor	t4,t4,a0
     1b4:	017efeb3          	and	t4,t4,s7
     1b8:	01d54f33          	xor	t5,a0,t4
     1bc:	004e9513          	slli	a0,t4,0x4
     1c0:	01e54533          	xor	a0,a0,t5
     1c4:	00855f13          	srli	t5,a0,0x8
     1c8:	00af4f33          	xor	t5,t5,a0
     1cc:	01af7f33          	and	t5,t5,s10
     1d0:	01e54533          	xor	a0,a0,t5
     1d4:	008f1f13          	slli	t5,t5,0x8
     1d8:	00af4f33          	xor	t5,t5,a0
     1dc:	00165513          	srli	a0,a2,0x1
     1e0:	00c54533          	xor	a0,a0,a2
     1e4:	01357533          	and	a0,a0,s3
     1e8:	00a64eb3          	xor	t4,a2,a0
     1ec:	00151613          	slli	a2,a0,0x1
     1f0:	01d64633          	xor	a2,a2,t4
     1f4:	00265513          	srli	a0,a2,0x2
     1f8:	00c54533          	xor	a0,a0,a2
     1fc:	01657533          	and	a0,a0,s6
     200:	00a64eb3          	xor	t4,a2,a0
     204:	00251613          	slli	a2,a0,0x2
     208:	01d64633          	xor	a2,a2,t4
     20c:	00465513          	srli	a0,a2,0x4
     210:	00c54533          	xor	a0,a0,a2
     214:	01757533          	and	a0,a0,s7
     218:	00a64eb3          	xor	t4,a2,a0
     21c:	00451613          	slli	a2,a0,0x4
     220:	01d64633          	xor	a2,a2,t4
     224:	00865413          	srli	s0,a2,0x8
     228:	00c44433          	xor	s0,s0,a2
     22c:	01a47433          	and	s0,s0,s10
     230:	00864633          	xor	a2,a2,s0
     234:	00841413          	slli	s0,s0,0x8
  to_bit_interleaving(K1, U64BIG(*(u64*)(k + 8)));
     238:	008e2283          	lw	t0,8(t3)
     23c:	00ce2e83          	lw	t4,12(t3)
  to_bit_interleaving(K0, U64BIG(*(u64*)k));
     240:	fff58593          	addi	a1,a1,-1
     244:	00c44633          	xor	a2,s0,a2
     248:	00bf74b3          	and	s1,t5,a1
     24c:	01061513          	slli	a0,a2,0x10
     250:	00a4e4b3          	or	s1,s1,a0
     254:	ffff0537          	lui	a0,0xffff0
     258:	00a67633          	and	a2,a2,a0
     25c:	010f5413          	srli	s0,t5,0x10
  to_bit_interleaving(K1, U64BIG(*(u64*)(k + 8)));
     260:	0182df93          	srli	t6,t0,0x18
     264:	008e9f13          	slli	t5,t4,0x8
  to_bit_interleaving(K0, U64BIG(*(u64*)k));
     268:	00c46433          	or	s0,s0,a2
  to_bit_interleaving(K1, U64BIG(*(u64*)(k + 8)));
     26c:	018e9e13          	slli	t3,t4,0x18
     270:	01ff6fb3          	or	t6,t5,t6
     274:	0082d613          	srli	a2,t0,0x8
     278:	00829f13          	slli	t5,t0,0x8
     27c:	00ce6633          	or	a2,t3,a2
     280:	01e87f33          	and	t5,a6,t5
     284:	01829293          	slli	t0,t0,0x18
     288:	005f6f33          	or	t5,t5,t0
     28c:	01a672b3          	and	t0,a2,s10
     290:	005f6f33          	or	t5,t5,t0
     294:	00c6f633          	and	a2,a3,a2
     298:	0ffff293          	andi	t0,t6,255
     29c:	01f87fb3          	and	t6,a6,t6
     2a0:	008ede13          	srli	t3,t4,0x8
     2a4:	01f66633          	or	a2,a2,t6
     2a8:	018ede93          	srli	t4,t4,0x18
     2ac:	01d66633          	or	a2,a2,t4
     2b0:	01ae7e33          	and	t3,t3,s10
     2b4:	01c66633          	or	a2,a2,t3
     2b8:	00165e13          	srli	t3,a2,0x1
     2bc:	00ce4e33          	xor	t3,t3,a2
     2c0:	013e7e33          	and	t3,t3,s3
     2c4:	01c64633          	xor	a2,a2,t3
     2c8:	001e1e13          	slli	t3,t3,0x1
     2cc:	00ce4633          	xor	a2,t3,a2
     2d0:	00265e13          	srli	t3,a2,0x2
     2d4:	00ce4e33          	xor	t3,t3,a2
     2d8:	016e7e33          	and	t3,t3,s6
     2dc:	01c64633          	xor	a2,a2,t3
     2e0:	002e1e13          	slli	t3,t3,0x2
     2e4:	00ce4633          	xor	a2,t3,a2
     2e8:	00465e13          	srli	t3,a2,0x4
     2ec:	00ce4e33          	xor	t3,t3,a2
     2f0:	017e7e33          	and	t3,t3,s7
     2f4:	01c64633          	xor	a2,a2,t3
     2f8:	004e1e13          	slli	t3,t3,0x4
     2fc:	00ce4633          	xor	a2,t3,a2
     300:	005f6f33          	or	t5,t5,t0
     304:	00865e93          	srli	t4,a2,0x8
     308:	00ceceb3          	xor	t4,t4,a2
     30c:	001f5e13          	srli	t3,t5,0x1
     310:	01aefeb3          	and	t4,t4,s10
     314:	01ee4e33          	xor	t3,t3,t5
     318:	01d64633          	xor	a2,a2,t4
     31c:	013e7e33          	and	t3,t3,s3
     320:	008e9e93          	slli	t4,t4,0x8
     324:	00ceceb3          	xor	t4,t4,a2
     328:	01cf4f33          	xor	t5,t5,t3
     32c:	001e1613          	slli	a2,t3,0x1
     330:	01e64633          	xor	a2,a2,t5
     334:	00265e13          	srli	t3,a2,0x2
     338:	00ce4e33          	xor	t3,t3,a2
     33c:	016e7e33          	and	t3,t3,s6
     340:	01c64f33          	xor	t5,a2,t3
     344:	002e1613          	slli	a2,t3,0x2
     348:	01e64633          	xor	a2,a2,t5
     34c:	00465e13          	srli	t3,a2,0x4
     350:	00ce4e33          	xor	t3,t3,a2
     354:	017e7e33          	and	t3,t3,s7
     358:	01c64f33          	xor	t5,a2,t3
     35c:	004e1613          	slli	a2,t3,0x4
     360:	01e64633          	xor	a2,a2,t5
     364:	00865e13          	srli	t3,a2,0x8
     368:	00ce4e33          	xor	t3,t3,a2
     36c:	01ae7e33          	and	t3,t3,s10
     370:	01c64633          	xor	a2,a2,t3
     374:	008e1e13          	slli	t3,t3,0x8
                        const unsigned char* k) {
     378:	0a412303          	lw	t1,164(sp)
  to_bit_interleaving(K1, U64BIG(*(u64*)(k + 8)));
     37c:	00ce4633          	xor	a2,t3,a2
     380:	00beff33          	and	t5,t4,a1
     384:	01061e13          	slli	t3,a2,0x10
     388:	01cf67b3          	or	a5,t5,t3
     38c:	00a67633          	and	a2,a2,a0
     390:	010ede93          	srli	t4,t4,0x10
  to_bit_interleaving(N0, U64BIG(*(u64*)npub));
     394:	00432f83          	lw	t6,4(t1)
  to_bit_interleaving(K1, U64BIG(*(u64*)(k + 8)));
     398:	00f12423          	sw	a5,8(sp)
     39c:	00cee7b3          	or	a5,t4,a2
  to_bit_interleaving(N0, U64BIG(*(u64*)npub));
     3a0:	00032e83          	lw	t4,0(t1)
     3a4:	008f9f13          	slli	t5,t6,0x8
     3a8:	018f9e13          	slli	t3,t6,0x18
     3ac:	018ed293          	srli	t0,t4,0x18
     3b0:	005f62b3          	or	t0,t5,t0
     3b4:	008ed613          	srli	a2,t4,0x8
     3b8:	008e9f13          	slli	t5,t4,0x8
     3bc:	00ce6633          	or	a2,t3,a2
     3c0:	01e87f33          	and	t5,a6,t5
     3c4:	018e9e93          	slli	t4,t4,0x18
     3c8:	01df6f33          	or	t5,t5,t4
     3cc:	01a67eb3          	and	t4,a2,s10
     3d0:	01df6f33          	or	t5,t5,t4
     3d4:	00c6f633          	and	a2,a3,a2
     3d8:	0ff2fe93          	andi	t4,t0,255
     3dc:	005872b3          	and	t0,a6,t0
     3e0:	008fde13          	srli	t3,t6,0x8
     3e4:	00566633          	or	a2,a2,t0
     3e8:	018fdf93          	srli	t6,t6,0x18
     3ec:	01f66633          	or	a2,a2,t6
     3f0:	01ae7e33          	and	t3,t3,s10
     3f4:	01c66633          	or	a2,a2,t3
     3f8:	00165e13          	srli	t3,a2,0x1
     3fc:	00ce4e33          	xor	t3,t3,a2
     400:	013e7e33          	and	t3,t3,s3
     404:	01c64633          	xor	a2,a2,t3
     408:	001e1e13          	slli	t3,t3,0x1
     40c:	00ce4633          	xor	a2,t3,a2
     410:	01df6f33          	or	t5,t5,t4
     414:	00265e93          	srli	t4,a2,0x2
     418:	00ceceb3          	xor	t4,t4,a2
     41c:	016efeb3          	and	t4,t4,s6
     420:	01d64633          	xor	a2,a2,t4
     424:	002e9e13          	slli	t3,t4,0x2
     428:	00ce4e33          	xor	t3,t3,a2
     42c:	004e5e93          	srli	t4,t3,0x4
     430:	01ceceb3          	xor	t4,t4,t3
     434:	017efeb3          	and	t4,t4,s7
     438:	01de4633          	xor	a2,t3,t4
     43c:	004e9e13          	slli	t3,t4,0x4
     440:	00ce4e33          	xor	t3,t3,a2
     444:	008e5613          	srli	a2,t3,0x8
     448:	01c64633          	xor	a2,a2,t3
     44c:	01a67633          	and	a2,a2,s10
     450:	00ce4e33          	xor	t3,t3,a2
     454:	00861613          	slli	a2,a2,0x8
     458:	01c64633          	xor	a2,a2,t3
     45c:	001f5e13          	srli	t3,t5,0x1
     460:	01ee4e33          	xor	t3,t3,t5
     464:	013e7e33          	and	t3,t3,s3
     468:	01cf4f33          	xor	t5,t5,t3
     46c:	001e1e93          	slli	t4,t3,0x1
     470:	01eeceb3          	xor	t4,t4,t5
     474:	002ede13          	srli	t3,t4,0x2
     478:	01de4e33          	xor	t3,t3,t4
     47c:	016e7e33          	and	t3,t3,s6
     480:	01cecf33          	xor	t5,t4,t3
     484:	002e1e93          	slli	t4,t3,0x2
     488:	01eeceb3          	xor	t4,t4,t5
     48c:	004edf13          	srli	t5,t4,0x4
     490:	01df4f33          	xor	t5,t5,t4
     494:	017f7f33          	and	t5,t5,s7
  to_bit_interleaving(N1, U64BIG(*(u64*)(npub + 8)));
     498:	00832383          	lw	t2,8(t1)
     49c:	01eece33          	xor	t3,t4,t5
  to_bit_interleaving(N0, U64BIG(*(u64*)npub));
     4a0:	004f1e93          	slli	t4,t5,0x4
  to_bit_interleaving(N1, U64BIG(*(u64*)(npub + 8)));
     4a4:	00c32f03          	lw	t5,12(t1)
  to_bit_interleaving(N0, U64BIG(*(u64*)npub));
     4a8:	01ceceb3          	xor	t4,t4,t3
     4ac:	008ede13          	srli	t3,t4,0x8
  to_bit_interleaving(N1, U64BIG(*(u64*)(npub + 8)));
     4b0:	018f1313          	slli	t1,t5,0x18
     4b4:	0083d293          	srli	t0,t2,0x8
     4b8:	005362b3          	or	t0,t1,t0
  to_bit_interleaving(N0, U64BIG(*(u64*)npub));
     4bc:	01de4e33          	xor	t3,t3,t4
  to_bit_interleaving(N1, U64BIG(*(u64*)(npub + 8)));
     4c0:	008f1313          	slli	t1,t5,0x8
     4c4:	0183df93          	srli	t6,t2,0x18
     4c8:	01f36fb3          	or	t6,t1,t6
  to_bit_interleaving(N0, U64BIG(*(u64*)npub));
     4cc:	01ae7e33          	and	t3,t3,s10
  to_bit_interleaving(N1, U64BIG(*(u64*)(npub + 8)));
     4d0:	00839313          	slli	t1,t2,0x8
     4d4:	0056f6b3          	and	a3,a3,t0
     4d8:	01ceceb3          	xor	t4,t4,t3
     4dc:	00687333          	and	t1,a6,t1
  to_bit_interleaving(N0, U64BIG(*(u64*)npub));
     4e0:	008e1e13          	slli	t3,t3,0x8
  to_bit_interleaving(N1, U64BIG(*(u64*)(npub + 8)));
     4e4:	01f87833          	and	a6,a6,t6
  to_bit_interleaving(N0, U64BIG(*(u64*)npub));
     4e8:	01de4e33          	xor	t3,t3,t4
  to_bit_interleaving(N1, U64BIG(*(u64*)(npub + 8)));
     4ec:	0106e6b3          	or	a3,a3,a6
     4f0:	008f5e93          	srli	t4,t5,0x8
     4f4:	018f5f13          	srli	t5,t5,0x18
     4f8:	01e6e6b3          	or	a3,a3,t5
     4fc:	01aefeb3          	and	t4,t4,s10
     500:	01d6e6b3          	or	a3,a3,t4
     504:	0016d813          	srli	a6,a3,0x1
     508:	00d84833          	xor	a6,a6,a3
     50c:	01387833          	and	a6,a6,s3
     510:	0106c6b3          	xor	a3,a3,a6
     514:	00181813          	slli	a6,a6,0x1
     518:	00d846b3          	xor	a3,a6,a3
     51c:	0026de93          	srli	t4,a3,0x2
     520:	00deceb3          	xor	t4,t4,a3
     524:	016efeb3          	and	t4,t4,s6
     528:	01d6c6b3          	xor	a3,a3,t4
     52c:	002e9813          	slli	a6,t4,0x2
     530:	00d84833          	xor	a6,a6,a3
     534:	00485e93          	srli	t4,a6,0x4
     538:	010eceb3          	xor	t4,t4,a6
     53c:	017efeb3          	and	t4,t4,s7
     540:	01839393          	slli	t2,t2,0x18
     544:	01d846b3          	xor	a3,a6,t4
     548:	00736333          	or	t1,t1,t2
     54c:	004e9813          	slli	a6,t4,0x4
     550:	01a2f3b3          	and	t2,t0,s10
     554:	00d84833          	xor	a6,a6,a3
     558:	00736333          	or	t1,t1,t2
     55c:	0ffff393          	andi	t2,t6,255
     560:	00736333          	or	t1,t1,t2
     564:	00885693          	srli	a3,a6,0x8
     568:	0106c6b3          	xor	a3,a3,a6
     56c:	00135e93          	srli	t4,t1,0x1
     570:	01a6f6b3          	and	a3,a3,s10
     574:	006eceb3          	xor	t4,t4,t1
     578:	00d84833          	xor	a6,a6,a3
     57c:	013efeb3          	and	t4,t4,s3
     580:	00869693          	slli	a3,a3,0x8
     584:	0106c6b3          	xor	a3,a3,a6
     588:	01d34333          	xor	t1,t1,t4
     58c:	001e9813          	slli	a6,t4,0x1
     590:	00684833          	xor	a6,a6,t1
     594:	00285313          	srli	t1,a6,0x2
     598:	01034333          	xor	t1,t1,a6
     59c:	01637333          	and	t1,t1,s6
     5a0:	00684eb3          	xor	t4,a6,t1
     5a4:	00231813          	slli	a6,t1,0x2
     5a8:	01d84833          	xor	a6,a6,t4
     5ac:	00485313          	srli	t1,a6,0x4
     5b0:	01034333          	xor	t1,t1,a6
     5b4:	01737333          	and	t1,t1,s7
     5b8:	00684eb3          	xor	t4,a6,t1
     5bc:	00431813          	slli	a6,t1,0x4
     5c0:	01d84833          	xor	a6,a6,t4
     5c4:	00885313          	srli	t1,a6,0x8
     5c8:	01034333          	xor	t1,t1,a6
     5cc:	01a37333          	and	t1,t1,s10
     5d0:	00684833          	xor	a6,a6,t1
     5d4:	00831313          	slli	t1,t1,0x8
     5d8:	01034833          	xor	a6,t1,a6

  // initialization
  to_bit_interleaving(x0, IV);
  s_o[0] = x0.o;
     5dc:	88220337          	lui	t1,0x88220
     5e0:	02612c23          	sw	t1,56(sp)
  s_e[0] = x0.e; 
     5e4:	00200337          	lui	t1,0x200
  to_bit_interleaving(K1, U64BIG(*(u64*)(k + 8)));
     5e8:	00f12623          	sw	a5,12(sp)
  s_e[0] = x0.e; 
     5ec:	04612623          	sw	t1,76(sp)
  s_o[1] = K0.o;
     5f0:	02812e23          	sw	s0,60(sp)
  s_e[1] = K0.e;
  s_e[2] = K1.e;
     5f4:	00812783          	lw	a5,8(sp)
  to_bit_interleaving(N0, U64BIG(*(u64*)npub));
     5f8:	010e1e93          	slli	t4,t3,0x10
     5fc:	00b67333          	and	t1,a2,a1
     600:	00ae7e33          	and	t3,t3,a0
     604:	01065613          	srli	a2,a2,0x10
     608:	01c66633          	or	a2,a2,t3
  s_e[2] = K1.e;
     60c:	04f12a23          	sw	a5,84(sp)
  s_o[2] = K1.o;
  s_e[3] = N0.e;
  s_o[3] = N0.o;
     610:	04c12223          	sw	a2,68(sp)
  s_o[2] = K1.o;
     614:	00c12783          	lw	a5,12(sp)
  to_bit_interleaving(N1, U64BIG(*(u64*)(npub + 8)));
     618:	01081613          	slli	a2,a6,0x10
     61c:	00b6f5b3          	and	a1,a3,a1
     620:	00c5e5b3          	or	a1,a1,a2
     624:	0106d693          	srli	a3,a3,0x10
     628:	00a87833          	and	a6,a6,a0
     62c:	0106e833          	or	a6,a3,a6
  to_bit_interleaving(N0, U64BIG(*(u64*)npub));
     630:	01d36333          	or	t1,t1,t4
  s_e[4] = N1.e;
     634:	04b12e23          	sw	a1,92(sp)
  s_o[4] = N1.o;
  P12();
     638:	03810693          	addi	a3,sp,56
     63c:	04c10613          	addi	a2,sp,76
     640:	00c00593          	li	a1,12
     644:	00c00513          	li	a0,12
                        const unsigned char* k) {
     648:	00088a93          	mv	s5,a7
  s_o[2] = K1.o;
     64c:	04f12023          	sw	a5,64(sp)
  s_e[3] = N0.e;
     650:	04612c23          	sw	t1,88(sp)
  s_o[4] = N1.o;
     654:	05012423          	sw	a6,72(sp)
  s_e[1] = K0.e;
     658:	04912823          	sw	s1,80(sp)
  P12();
     65c:	01d010ef          	jal	ra,1e78 <ROUND>
     660:	03810693          	addi	a3,sp,56
     664:	04c10613          	addi	a2,sp,76
     668:	00c00593          	li	a1,12
     66c:	00900513          	li	a0,9
     670:	009010ef          	jal	ra,1e78 <ROUND>
     674:	03810693          	addi	a3,sp,56
     678:	04c10613          	addi	a2,sp,76
     67c:	00900593          	li	a1,9
     680:	00c00513          	li	a0,12
     684:	7f4010ef          	jal	ra,1e78 <ROUND>
     688:	03810693          	addi	a3,sp,56
     68c:	04c10613          	addi	a2,sp,76
     690:	00900593          	li	a1,9
     694:	00900513          	li	a0,9
     698:	7e0010ef          	jal	ra,1e78 <ROUND>
     69c:	03810693          	addi	a3,sp,56
     6a0:	04c10613          	addi	a2,sp,76
     6a4:	00c00593          	li	a1,12
     6a8:	00600513          	li	a0,6
     6ac:	7cc010ef          	jal	ra,1e78 <ROUND>
     6b0:	03810693          	addi	a3,sp,56
     6b4:	04c10613          	addi	a2,sp,76
     6b8:	00c00593          	li	a1,12
     6bc:	00300513          	li	a0,3
     6c0:	7b8010ef          	jal	ra,1e78 <ROUND>
     6c4:	03810693          	addi	a3,sp,56
     6c8:	04c10613          	addi	a2,sp,76
     6cc:	00900593          	li	a1,9
     6d0:	00600513          	li	a0,6
     6d4:	7a4010ef          	jal	ra,1e78 <ROUND>
     6d8:	03810693          	addi	a3,sp,56
     6dc:	04c10613          	addi	a2,sp,76
     6e0:	00900593          	li	a1,9
     6e4:	00300513          	li	a0,3
     6e8:	790010ef          	jal	ra,1e78 <ROUND>
     6ec:	03810693          	addi	a3,sp,56
     6f0:	04c10613          	addi	a2,sp,76
     6f4:	00600593          	li	a1,6
     6f8:	00c00513          	li	a0,12
     6fc:	77c010ef          	jal	ra,1e78 <ROUND>
     700:	03810693          	addi	a3,sp,56
     704:	04c10613          	addi	a2,sp,76
     708:	00600593          	li	a1,6
     70c:	00900513          	li	a0,9
     710:	768010ef          	jal	ra,1e78 <ROUND>
     714:	03810693          	addi	a3,sp,56
     718:	04c10613          	addi	a2,sp,76
     71c:	00300593          	li	a1,3
     720:	00c00513          	li	a0,12
     724:	754010ef          	jal	ra,1e78 <ROUND>
     728:	03810693          	addi	a3,sp,56
     72c:	04c10613          	addi	a2,sp,76
     730:	00300593          	li	a1,3
     734:	00900513          	li	a0,9
     738:	740010ef          	jal	ra,1e78 <ROUND>
  s_e[3] ^= K0.e;
     73c:	05812683          	lw	a3,88(sp)
  s_o[3] ^= K0.o;
  s_e[4] ^= K1.e;
     740:	00812783          	lw	a5,8(sp)
  s_e[3] ^= K0.e;
     744:	0096c6b3          	xor	a3,a3,s1
     748:	04d12c23          	sw	a3,88(sp)
  s_o[3] ^= K0.o;
     74c:	04412683          	lw	a3,68(sp)
     750:	0086c6b3          	xor	a3,a3,s0
     754:	04d12223          	sw	a3,68(sp)
  s_e[4] ^= K1.e;
     758:	05c12683          	lw	a3,92(sp)
     75c:	00f6c6b3          	xor	a3,a3,a5
     760:	04d12e23          	sw	a3,92(sp)
  s_o[4] ^= K1.o;
     764:	00c12783          	lw	a5,12(sp)
     768:	04812683          	lw	a3,72(sp)
     76c:	00f6c6b3          	xor	a3,a3,a5
     770:	04d12423          	sw	a3,72(sp)

  // process associated data
  if (adlen) {
     774:	015de6b3          	or	a3,s11,s5
     778:	00068463          	beqz	a3,780 <crypto_aead_encrypt+0x6f4>
     77c:	7ad0006f          	j	1728 <crypto_aead_encrypt+0x169c>
    to_bit_interleaving(t1, tmp1);
    s_e[1] ^= t1.e;
    s_o[1] ^= t1.o;
    P8();
  }
  s_e[4] ^= 1;
     780:	05c12783          	lw	a5,92(sp)

  // process plaintext
  while (mlen >= RATE) {
     784:	01c12883          	lw	a7,28(sp)
     788:	01812803          	lw	a6,24(sp)
  s_e[4] ^= 1;
     78c:	0017c793          	xori	a5,a5,1
    to_bit_interleaving(t0, U64BIG(*(u64*)m));
     790:	00010eb7          	lui	t4,0x10
     794:	22222bb7          	lui	s7,0x22222
     798:	0c0c1d37          	lui	s10,0xc0c1
     79c:	00f00db7          	lui	s11,0xf00
  s_e[4] ^= 1;
     7a0:	04f12e23          	sw	a5,92(sp)
  while (mlen >= RATE) {
     7a4:	00090e13          	mv	t3,s2
     7a8:	000a0313          	mv	t1,s4
    to_bit_interleaving(t0, U64BIG(*(u64*)m));
     7ac:	f00e8993          	addi	s3,t4,-256 # ff00 <_bss_end+0xbc90>
     7b0:	222b8b93          	addi	s7,s7,546 # 22222222 <_stack_start+0x2220c01a>
     7b4:	c0cd0d13          	addi	s10,s10,-1012 # c0c0c0c <_stack_start+0xc0aaa04>
     7b8:	0f0d8d93          	addi	s11,s11,240 # f000f0 <_stack_start+0xee9ee8>
    s_e[0] ^= t0.e;
     7bc:	04c12c83          	lw	s9,76(sp)
    s_o[0] ^= t0.o;
     7c0:	03812c03          	lw	s8,56(sp)
    to_bit_interleaving(t1, U64BIG(*(u64*)(m + 8)));
    s_e[1] ^= t1.e;
     7c4:	05012b03          	lw	s6,80(sp)
    s_o[1] ^= t1.o;
     7c8:	03c12a83          	lw	s5,60(sp)
  while (mlen >= RATE) {
     7cc:	00030463          	beqz	t1,7d4 <crypto_aead_encrypt+0x748>
     7d0:	7ed0006f          	j	17bc <crypto_aead_encrypt+0x1730>
     7d4:	00f00793          	li	a5,15
     7d8:	01c7f463          	bgeu	a5,t3,7e0 <crypto_aead_encrypt+0x754>
     7dc:	7e10006f          	j	17bc <crypto_aead_encrypt+0x1730>
     7e0:	01ca1793          	slli	a5,s4,0x1c
     7e4:	00495513          	srli	a0,s2,0x4
     7e8:	00a7e533          	or	a0,a5,a0
     7ec:	00451793          	slli	a5,a0,0x4
     7f0:	00f12823          	sw	a5,16(sp)
     7f4:	01812783          	lw	a5,24(sp)
     7f8:	00451713          	slli	a4,a0,0x4
     7fc:	004a5593          	srli	a1,s4,0x4
     800:	00e787b3          	add	a5,a5,a4
     804:	ff000613          	li	a2,-16
     808:	fff00693          	li	a3,-1
     80c:	00f12a23          	sw	a5,20(sp)
     810:	0c1030ef          	jal	ra,40d0 <__muldi3>
     814:	01250933          	add	s2,a0,s2
     818:	01458a33          	add	s4,a1,s4
     81c:	00a93533          	sltu	a0,s2,a0
     820:	014507b3          	add	a5,a0,s4
     824:	00f12c23          	sw	a5,24(sp)
    m += RATE;
    c += RATE;
  }
  tmp0 = 0;
  tmp1 = 0;
  for (i = 0; i < mlen; ++i, ++m)
     828:	00000993          	li	s3,0
  tmp1 = 0;
     82c:	00000b93          	li	s7,0
     830:	00000d93          	li	s11,0
  tmp0 = 0;
     834:	00000a13          	li	s4,0
     838:	00000d13          	li	s10,0
  for (i = 0; i < mlen; ++i, ++m)
     83c:	01812783          	lw	a5,24(sp)
     840:	00078463          	beqz	a5,848 <crypto_aead_encrypt+0x7bc>
     844:	56c0106f          	j	1db0 <crypto_aead_encrypt+0x1d24>
     848:	0129f463          	bgeu	s3,s2,850 <crypto_aead_encrypt+0x7c4>
     84c:	5640106f          	j	1db0 <crypto_aead_encrypt+0x1d24>
    if (i < 8)
      tmp0 ^= INS_BYTE64(*m, i);
    else
      tmp1 ^= INS_BYTE64(*m, i % 8);
  if (mlen < 8)
     850:	00700613          	li	a2,7
     854:	01267463          	bgeu	a2,s2,85c <crypto_aead_encrypt+0x7d0>
     858:	5b80106f          	j	1e10 <crypto_aead_encrypt+0x1d84>
    tmp0 ^= INS_BYTE64(0x80, mlen);
     85c:	41260633          	sub	a2,a2,s2
     860:	00361613          	slli	a2,a2,0x3
     864:	08000513          	li	a0,128
     868:	00000593          	li	a1,0
     86c:	03b030ef          	jal	ra,40a6 <__ashldi3>
     870:	00aa4a33          	xor	s4,s4,a0
     874:	00bd4d33          	xor	s10,s10,a1
  else
    tmp1 ^= INS_BYTE64(0x80, mlen % 8);
  to_bit_interleaving(t0, tmp0);
     878:	001a5513          	srli	a0,s4,0x1
     87c:	222225b7          	lui	a1,0x22222
     880:	22258593          	addi	a1,a1,546 # 22222222 <_stack_start+0x2220c01a>
     884:	01454533          	xor	a0,a0,s4
     888:	00b57533          	and	a0,a0,a1
     88c:	00aa46b3          	xor	a3,s4,a0
     890:	00151513          	slli	a0,a0,0x1
     894:	00d54533          	xor	a0,a0,a3
     898:	00255713          	srli	a4,a0,0x2
     89c:	0c0c16b7          	lui	a3,0xc0c1
     8a0:	c0c68813          	addi	a6,a3,-1012 # c0c0c0c <_stack_start+0xc0aaa04>
     8a4:	00a74733          	xor	a4,a4,a0
     8a8:	01077733          	and	a4,a4,a6
     8ac:	00e54533          	xor	a0,a0,a4
     8b0:	00271713          	slli	a4,a4,0x2
     8b4:	00a74533          	xor	a0,a4,a0
     8b8:	00455613          	srli	a2,a0,0x4
     8bc:	00a646b3          	xor	a3,a2,a0
     8c0:	00f00637          	lui	a2,0xf00
     8c4:	0f060893          	addi	a7,a2,240 # f000f0 <_stack_start+0xee9ee8>
     8c8:	0116f633          	and	a2,a3,a7
     8cc:	00c54533          	xor	a0,a0,a2
     8d0:	00461693          	slli	a3,a2,0x4
     8d4:	00a6c6b3          	xor	a3,a3,a0
     8d8:	0086d713          	srli	a4,a3,0x8
     8dc:	00010637          	lui	a2,0x10
     8e0:	f0060313          	addi	t1,a2,-256 # ff00 <_bss_end+0xbc90>
     8e4:	00d74733          	xor	a4,a4,a3
     8e8:	00677733          	and	a4,a4,t1
     8ec:	00e6c6b3          	xor	a3,a3,a4
     8f0:	00871713          	slli	a4,a4,0x8
     8f4:	00d74733          	xor	a4,a4,a3
     8f8:	001d5693          	srli	a3,s10,0x1
     8fc:	01a6c6b3          	xor	a3,a3,s10
     900:	00b6f6b3          	and	a3,a3,a1
     904:	00dd4533          	xor	a0,s10,a3
     908:	00169793          	slli	a5,a3,0x1
     90c:	00a7c7b3          	xor	a5,a5,a0
     910:	0027d693          	srli	a3,a5,0x2
     914:	00f6c6b3          	xor	a3,a3,a5
     918:	0106f6b3          	and	a3,a3,a6
     91c:	00d7c533          	xor	a0,a5,a3
     920:	00269793          	slli	a5,a3,0x2
     924:	00a7c7b3          	xor	a5,a5,a0
     928:	0047d693          	srli	a3,a5,0x4
     92c:	00f6c6b3          	xor	a3,a3,a5
     930:	0116f6b3          	and	a3,a3,a7
     934:	00d7c533          	xor	a0,a5,a3
     938:	00469793          	slli	a5,a3,0x4
     93c:	00a7c7b3          	xor	a5,a5,a0
     940:	0087d693          	srli	a3,a5,0x8
     944:	00f6c6b3          	xor	a3,a3,a5
     948:	0066f6b3          	and	a3,a3,t1
     94c:	00d7c7b3          	xor	a5,a5,a3
     950:	00869693          	slli	a3,a3,0x8
     954:	fff60613          	addi	a2,a2,-1
     958:	00f6c7b3          	xor	a5,a3,a5
     95c:	01079513          	slli	a0,a5,0x10
     960:	00c776b3          	and	a3,a4,a2
     964:	00a6e6b3          	or	a3,a3,a0
     968:	ffff0537          	lui	a0,0xffff0
     96c:	01075713          	srli	a4,a4,0x10
     970:	00a7f7b3          	and	a5,a5,a0
     974:	00f767b3          	or	a5,a4,a5
  s_e[0] ^= t0.e;
  s_o[0] ^= t0.o;
  to_bit_interleaving(t1, tmp1);
     978:	001bd713          	srli	a4,s7,0x1
     97c:	01774733          	xor	a4,a4,s7
     980:	00b77733          	and	a4,a4,a1
  s_e[0] ^= t0.e;
     984:	0196ccb3          	xor	s9,a3,s9
     988:	00ebce33          	xor	t3,s7,a4
  to_bit_interleaving(t1, tmp1);
     98c:	00171693          	slli	a3,a4,0x1
     990:	01c6c6b3          	xor	a3,a3,t3
     994:	0026d713          	srli	a4,a3,0x2
     998:	00d74733          	xor	a4,a4,a3
     99c:	01077733          	and	a4,a4,a6
     9a0:	00e6ce33          	xor	t3,a3,a4
     9a4:	00271693          	slli	a3,a4,0x2
     9a8:	01c6c6b3          	xor	a3,a3,t3
     9ac:	0046de13          	srli	t3,a3,0x4
     9b0:	00de4e33          	xor	t3,t3,a3
     9b4:	011e7e33          	and	t3,t3,a7
     9b8:	01c6c733          	xor	a4,a3,t3
     9bc:	004e1693          	slli	a3,t3,0x4
     9c0:	00e6c6b3          	xor	a3,a3,a4
     9c4:	0086d713          	srli	a4,a3,0x8
     9c8:	00d74733          	xor	a4,a4,a3
     9cc:	00677733          	and	a4,a4,t1
     9d0:	00e6c6b3          	xor	a3,a3,a4
     9d4:	00871713          	slli	a4,a4,0x8
     9d8:	00d74733          	xor	a4,a4,a3
     9dc:	001dd693          	srli	a3,s11,0x1
     9e0:	01b6c6b3          	xor	a3,a3,s11
     9e4:	00b6f6b3          	and	a3,a3,a1
     9e8:	00ddcdb3          	xor	s11,s11,a3
     9ec:	00169e13          	slli	t3,a3,0x1
     9f0:	01be4e33          	xor	t3,t3,s11
     9f4:	002e5693          	srli	a3,t3,0x2
     9f8:	01c6c6b3          	xor	a3,a3,t3
     9fc:	0106f6b3          	and	a3,a3,a6
     a00:	00de4eb3          	xor	t4,t3,a3
     a04:	00269e13          	slli	t3,a3,0x2
     a08:	01de4e33          	xor	t3,t3,t4
     a0c:	004e5e93          	srli	t4,t3,0x4
     a10:	01ceceb3          	xor	t4,t4,t3
     a14:	011efeb3          	and	t4,t4,a7
     a18:	01de46b3          	xor	a3,t3,t4
     a1c:	004e9e13          	slli	t3,t4,0x4
     a20:	00de4e33          	xor	t3,t3,a3
     a24:	008e5693          	srli	a3,t3,0x8
     a28:	01c6c6b3          	xor	a3,a3,t3
     a2c:	0066f6b3          	and	a3,a3,t1
     a30:	00de4e33          	xor	t3,t3,a3
     a34:	00869693          	slli	a3,a3,0x8
     a38:	01c6ce33          	xor	t3,a3,t3
     a3c:	010e1e93          	slli	t4,t3,0x10
     a40:	00c776b3          	and	a3,a4,a2
     a44:	00ae7e33          	and	t3,t3,a0
     a48:	01075713          	srli	a4,a4,0x10
  s_o[0] ^= t0.o;
     a4c:	0187c7b3          	xor	a5,a5,s8
  to_bit_interleaving(t1, tmp1);
     a50:	01d6e6b3          	or	a3,a3,t4
     a54:	01c76e33          	or	t3,a4,t3
  s_e[1] ^= t1.e;
     a58:	0166cb33          	xor	s6,a3,s6
  s_o[1] ^= t1.o;
     a5c:	015e4ab3          	xor	s5,t3,s5

  x0.e = s_e[0]; x0.o = s_o[0];
  x1.e = s_e[1]; x1.o = s_o[1]; 
  from_bit_interleaving(tmp0, x0);
     a60:	01079693          	slli	a3,a5,0x10
     a64:	00ccfe33          	and	t3,s9,a2
     a68:	00de6e33          	or	t3,t3,a3
     a6c:	008e5713          	srli	a4,t3,0x8
     a70:	01c74733          	xor	a4,a4,t3
     a74:	00677733          	and	a4,a4,t1
     a78:	00ee4e33          	xor	t3,t3,a4
     a7c:	00871693          	slli	a3,a4,0x8
     a80:	01c6c6b3          	xor	a3,a3,t3
     a84:	0046de13          	srli	t3,a3,0x4
     a88:	00de4e33          	xor	t3,t3,a3
     a8c:	011e7e33          	and	t3,t3,a7
     a90:	01c6c733          	xor	a4,a3,t3
     a94:	004e1693          	slli	a3,t3,0x4
     a98:	00e6c6b3          	xor	a3,a3,a4
     a9c:	0026dc13          	srli	s8,a3,0x2
     aa0:	00dc4c33          	xor	s8,s8,a3
  s_e[0] ^= t0.e;
     aa4:	05912623          	sw	s9,76(sp)
  s_o[0] ^= t0.o;
     aa8:	02f12c23          	sw	a5,56(sp)
  from_bit_interleaving(tmp0, x0);
     aac:	010cdc93          	srli	s9,s9,0x10
     ab0:	00a7f7b3          	and	a5,a5,a0
     ab4:	00fce7b3          	or	a5,s9,a5
     ab8:	010c7c33          	and	s8,s8,a6
     abc:	0186c6b3          	xor	a3,a3,s8
     ac0:	0087de93          	srli	t4,a5,0x8
     ac4:	002c1c13          	slli	s8,s8,0x2
     ac8:	00dc46b3          	xor	a3,s8,a3
     acc:	00feceb3          	xor	t4,t4,a5
     ad0:	0016de13          	srli	t3,a3,0x1
     ad4:	006efeb3          	and	t4,t4,t1
     ad8:	00de4e33          	xor	t3,t3,a3
     adc:	01d7c7b3          	xor	a5,a5,t4
     ae0:	008e9e93          	slli	t4,t4,0x8
     ae4:	00fec7b3          	xor	a5,t4,a5
     ae8:	00be7e33          	and	t3,t3,a1
     aec:	01c6c733          	xor	a4,a3,t3
     af0:	0047d693          	srli	a3,a5,0x4
     af4:	00f6c6b3          	xor	a3,a3,a5
     af8:	0116f6b3          	and	a3,a3,a7
     afc:	00d7ca33          	xor	s4,a5,a3
     b00:	00469793          	slli	a5,a3,0x4
     b04:	0147c7b3          	xor	a5,a5,s4
     b08:	0027d693          	srli	a3,a5,0x2
     b0c:	00f6c6b3          	xor	a3,a3,a5
     b10:	0106f6b3          	and	a3,a3,a6
     b14:	00d7ca33          	xor	s4,a5,a3
     b18:	00269793          	slli	a5,a3,0x2
     b1c:	0147c7b3          	xor	a5,a5,s4
     b20:	0017da13          	srli	s4,a5,0x1
     b24:	00fa4a33          	xor	s4,s4,a5
     b28:	001e1c13          	slli	s8,t3,0x1
     b2c:	00ba7a33          	and	s4,s4,a1
  from_bit_interleaving(tmp1, x1);
     b30:	00cb7633          	and	a2,s6,a2
  from_bit_interleaving(tmp0, x0);
     b34:	00ec4c33          	xor	s8,s8,a4
  from_bit_interleaving(tmp1, x1);
     b38:	010a9713          	slli	a4,s5,0x10
     b3c:	00e66733          	or	a4,a2,a4
     b40:	0147c7b3          	xor	a5,a5,s4
  from_bit_interleaving(tmp0, x0);
     b44:	001a1a13          	slli	s4,s4,0x1
     b48:	00fa4a33          	xor	s4,s4,a5
  from_bit_interleaving(tmp1, x1);
     b4c:	00875793          	srli	a5,a4,0x8
     b50:	00e7c7b3          	xor	a5,a5,a4
     b54:	0067f7b3          	and	a5,a5,t1
     b58:	00f74633          	xor	a2,a4,a5
     b5c:	00879713          	slli	a4,a5,0x8
     b60:	00c74733          	xor	a4,a4,a2
     b64:	00475693          	srli	a3,a4,0x4
     b68:	00e6c6b3          	xor	a3,a3,a4
     b6c:	0116f6b3          	and	a3,a3,a7
     b70:	00d747b3          	xor	a5,a4,a3
  s_e[1] ^= t1.e;
     b74:	05612823          	sw	s6,80(sp)
  from_bit_interleaving(tmp1, x1);
     b78:	00469713          	slli	a4,a3,0x4
     b7c:	010b5b13          	srli	s6,s6,0x10
  s_o[1] ^= t1.o;
     b80:	03512e23          	sw	s5,60(sp)
  from_bit_interleaving(tmp1, x1);
     b84:	00aafab3          	and	s5,s5,a0
     b88:	015b6ab3          	or	s5,s6,s5
     b8c:	00f74733          	xor	a4,a4,a5
     b90:	00275793          	srli	a5,a4,0x2
     b94:	008ad693          	srli	a3,s5,0x8
     b98:	00e7c7b3          	xor	a5,a5,a4
     b9c:	0156c6b3          	xor	a3,a3,s5
     ba0:	0107f7b3          	and	a5,a5,a6
     ba4:	0066f6b3          	and	a3,a3,t1
     ba8:	00f74733          	xor	a4,a4,a5
     bac:	00dacab3          	xor	s5,s5,a3
     bb0:	00279793          	slli	a5,a5,0x2
     bb4:	00869693          	slli	a3,a3,0x8
     bb8:	00e7c733          	xor	a4,a5,a4
     bbc:	0156cab3          	xor	s5,a3,s5
     bc0:	00175513          	srli	a0,a4,0x1
     bc4:	004ad613          	srli	a2,s5,0x4
     bc8:	00e54533          	xor	a0,a0,a4
     bcc:	01564633          	xor	a2,a2,s5
     bd0:	00b57533          	and	a0,a0,a1
     bd4:	01167633          	and	a2,a2,a7
     bd8:	00a747b3          	xor	a5,a4,a0
     bdc:	00cacab3          	xor	s5,s5,a2
     be0:	00461713          	slli	a4,a2,0x4
     be4:	01574733          	xor	a4,a4,s5
     be8:	00275693          	srli	a3,a4,0x2
     bec:	00e6c6b3          	xor	a3,a3,a4
     bf0:	0106f6b3          	and	a3,a3,a6
     bf4:	00d74ab3          	xor	s5,a4,a3
     bf8:	00269713          	slli	a4,a3,0x2
     bfc:	01574733          	xor	a4,a4,s5
     c00:	00175693          	srli	a3,a4,0x1
     c04:	00e6c6b3          	xor	a3,a3,a4
     c08:	00b6f5b3          	and	a1,a3,a1
     c0c:	00b74733          	xor	a4,a4,a1
     c10:	00151513          	slli	a0,a0,0x1
     c14:	00159593          	slli	a1,a1,0x1
     c18:	00e5cab3          	xor	s5,a1,a4
     c1c:	00f54b33          	xor	s6,a0,a5
  for (i = 0; i < mlen; ++i, ++c)
     c20:	00000d13          	li	s10,0
    if (i < 8)
     c24:	00700c93          	li	s9,7
     c28:	01412783          	lw	a5,20(sp)
     c2c:	01a789b3          	add	s3,a5,s10
  for (i = 0; i < mlen; ++i, ++c)
     c30:	012d7463          	bgeu	s10,s2,c38 <crypto_aead_encrypt+0xbac>
     c34:	2000106f          	j	1e34 <crypto_aead_encrypt+0x1da8>
      *c = EXT_BYTE64(tmp0, i);
    else
      *c = EXT_BYTE64(tmp1, i % 8);

  // finalization
  s_e[2] ^= K0.e;
     c38:	05412783          	lw	a5,84(sp)
  s_o[2] ^= K0.o;
  s_e[3] ^= K1.e;
     c3c:	00812703          	lw	a4,8(sp)
  s_o[3] ^= K1.o;
  P12();
     c40:	03810693          	addi	a3,sp,56
  s_e[2] ^= K0.e;
     c44:	0097c7b3          	xor	a5,a5,s1
     c48:	04f12a23          	sw	a5,84(sp)
  s_o[2] ^= K0.o;
     c4c:	04012783          	lw	a5,64(sp)
  P12();
     c50:	04c10613          	addi	a2,sp,76
     c54:	00c00593          	li	a1,12
  s_o[2] ^= K0.o;
     c58:	0087c7b3          	xor	a5,a5,s0
     c5c:	04f12023          	sw	a5,64(sp)
  s_e[3] ^= K1.e;
     c60:	05812783          	lw	a5,88(sp)
  P12();
     c64:	00c00513          	li	a0,12
  s_e[4] ^= K1.e;
  s_o[4] ^= K1.o;

  // set tag
  x3.e = s_e[3]; x3.o = s_o[3]; 
  from_bit_interleaving(tmp0, x3);
     c68:	ffff0a37          	lui	s4,0xffff0
  s_e[3] ^= K1.e;
     c6c:	00e7c7b3          	xor	a5,a5,a4
     c70:	04f12c23          	sw	a5,88(sp)
  s_o[3] ^= K1.o;
     c74:	00c12703          	lw	a4,12(sp)
     c78:	04412783          	lw	a5,68(sp)
     c7c:	00e7c7b3          	xor	a5,a5,a4
     c80:	04f12223          	sw	a5,68(sp)
  P12();
     c84:	1f4010ef          	jal	ra,1e78 <ROUND>
     c88:	03810693          	addi	a3,sp,56
     c8c:	04c10613          	addi	a2,sp,76
     c90:	00c00593          	li	a1,12
     c94:	00900513          	li	a0,9
     c98:	1e0010ef          	jal	ra,1e78 <ROUND>
     c9c:	03810693          	addi	a3,sp,56
     ca0:	04c10613          	addi	a2,sp,76
     ca4:	00900593          	li	a1,9
     ca8:	00c00513          	li	a0,12
     cac:	1cc010ef          	jal	ra,1e78 <ROUND>
     cb0:	03810693          	addi	a3,sp,56
     cb4:	04c10613          	addi	a2,sp,76
     cb8:	00900593          	li	a1,9
     cbc:	00900513          	li	a0,9
     cc0:	1b8010ef          	jal	ra,1e78 <ROUND>
     cc4:	03810693          	addi	a3,sp,56
     cc8:	04c10613          	addi	a2,sp,76
     ccc:	00c00593          	li	a1,12
     cd0:	00600513          	li	a0,6
     cd4:	1a4010ef          	jal	ra,1e78 <ROUND>
     cd8:	03810693          	addi	a3,sp,56
     cdc:	04c10613          	addi	a2,sp,76
     ce0:	00c00593          	li	a1,12
     ce4:	00300513          	li	a0,3
     ce8:	190010ef          	jal	ra,1e78 <ROUND>
     cec:	03810693          	addi	a3,sp,56
     cf0:	04c10613          	addi	a2,sp,76
     cf4:	00900593          	li	a1,9
     cf8:	00600513          	li	a0,6
     cfc:	17c010ef          	jal	ra,1e78 <ROUND>
     d00:	03810693          	addi	a3,sp,56
     d04:	04c10613          	addi	a2,sp,76
     d08:	00900593          	li	a1,9
     d0c:	00300513          	li	a0,3
     d10:	168010ef          	jal	ra,1e78 <ROUND>
     d14:	03810693          	addi	a3,sp,56
     d18:	04c10613          	addi	a2,sp,76
     d1c:	00600593          	li	a1,6
     d20:	00c00513          	li	a0,12
     d24:	154010ef          	jal	ra,1e78 <ROUND>
     d28:	03810693          	addi	a3,sp,56
     d2c:	04c10613          	addi	a2,sp,76
     d30:	00600593          	li	a1,6
     d34:	00900513          	li	a0,9
     d38:	140010ef          	jal	ra,1e78 <ROUND>
     d3c:	03810693          	addi	a3,sp,56
     d40:	04c10613          	addi	a2,sp,76
     d44:	00300593          	li	a1,3
     d48:	00c00513          	li	a0,12
     d4c:	12c010ef          	jal	ra,1e78 <ROUND>
     d50:	03810693          	addi	a3,sp,56
     d54:	04c10613          	addi	a2,sp,76
     d58:	00300593          	li	a1,3
     d5c:	00900513          	li	a0,9
     d60:	118010ef          	jal	ra,1e78 <ROUND>
  s_e[3] ^= K0.e;
     d64:	05812783          	lw	a5,88(sp)
  s_e[4] ^= K1.e;
     d68:	05c12283          	lw	t0,92(sp)
  s_o[4] ^= K1.o;
     d6c:	04812903          	lw	s2,72(sp)
  s_e[3] ^= K0.e;
     d70:	00f4c4b3          	xor	s1,s1,a5
  s_e[4] ^= K1.e;
     d74:	00812783          	lw	a5,8(sp)
  s_o[3] ^= K0.o;
     d78:	04412703          	lw	a4,68(sp)
  from_bit_interleaving(tmp0, x3);
     d7c:	00f00837          	lui	a6,0xf00
  s_e[4] ^= K1.e;
     d80:	0057c2b3          	xor	t0,a5,t0
  s_o[4] ^= K1.o;
     d84:	00c12783          	lw	a5,12(sp)
  s_o[3] ^= K0.o;
     d88:	00e44733          	xor	a4,s0,a4
  from_bit_interleaving(tmp0, x3);
     d8c:	01071613          	slli	a2,a4,0x10
  s_o[4] ^= K1.o;
     d90:	0127c933          	xor	s2,a5,s2
  from_bit_interleaving(tmp0, x3);
     d94:	000107b7          	lui	a5,0x10
     d98:	fff78393          	addi	t2,a5,-1 # ffff <_bss_end+0xbd8f>
     d9c:	0074f6b3          	and	a3,s1,t2
     da0:	00c6e6b3          	or	a3,a3,a2
     da4:	01477433          	and	s0,a4,s4
     da8:	0104d493          	srli	s1,s1,0x10
     dac:	0086d713          	srli	a4,a3,0x8
     db0:	f0078313          	addi	t1,a5,-256
     db4:	0084e433          	or	s0,s1,s0
     db8:	00d74733          	xor	a4,a4,a3
     dbc:	0f080f93          	addi	t6,a6,240 # f000f0 <_stack_start+0xee9ee8>
     dc0:	00677733          	and	a4,a4,t1
     dc4:	00845813          	srli	a6,s0,0x8
     dc8:	00e6c6b3          	xor	a3,a3,a4
     dcc:	00871793          	slli	a5,a4,0x8
     dd0:	00884833          	xor	a6,a6,s0
     dd4:	00d7c7b3          	xor	a5,a5,a3
     dd8:	00687833          	and	a6,a6,t1
     ddc:	01044433          	xor	s0,s0,a6
     de0:	0047d713          	srli	a4,a5,0x4
     de4:	00881813          	slli	a6,a6,0x8
     de8:	00884833          	xor	a6,a6,s0
     dec:	00f74733          	xor	a4,a4,a5
     df0:	01f77733          	and	a4,a4,t6
     df4:	00485693          	srli	a3,a6,0x4
     df8:	00e7c533          	xor	a0,a5,a4
     dfc:	0106c6b3          	xor	a3,a3,a6
     e00:	00471793          	slli	a5,a4,0x4
     e04:	00a7c7b3          	xor	a5,a5,a0
     e08:	01f6f6b3          	and	a3,a3,t6
     e0c:	00d84433          	xor	s0,a6,a3
     e10:	0027d513          	srli	a0,a5,0x2
     e14:	00469813          	slli	a6,a3,0x4
     e18:	0c0c1f37          	lui	t5,0xc0c1
     e1c:	00884833          	xor	a6,a6,s0
     e20:	c0cf0f13          	addi	t5,t5,-1012 # c0c0c0c <_stack_start+0xc0aaa04>
     e24:	00f54533          	xor	a0,a0,a5
     e28:	01e57533          	and	a0,a0,t5
     e2c:	00285893          	srli	a7,a6,0x2
     e30:	00a7c7b3          	xor	a5,a5,a0
     e34:	0108c8b3          	xor	a7,a7,a6
     e38:	00251513          	slli	a0,a0,0x2
     e3c:	00f54533          	xor	a0,a0,a5
     e40:	01e8f8b3          	and	a7,a7,t5
     e44:	011846b3          	xor	a3,a6,a7
     e48:	00155613          	srli	a2,a0,0x1
     e4c:	22222737          	lui	a4,0x22222
     e50:	00289813          	slli	a6,a7,0x2
     e54:	22270793          	addi	a5,a4,546 # 22222222 <_stack_start+0x2220c01a>
     e58:	00d84833          	xor	a6,a6,a3
     e5c:	00a64633          	xor	a2,a2,a0
     e60:	00f67633          	and	a2,a2,a5
     e64:	00185693          	srli	a3,a6,0x1
     e68:	00c54533          	xor	a0,a0,a2
     e6c:	0106c6b3          	xor	a3,a3,a6
     e70:	00161613          	slli	a2,a2,0x1
     e74:	00a64533          	xor	a0,a2,a0
     e78:	00f6f6b3          	and	a3,a3,a5
  *(u64*)c = U64BIG(tmp0);
     e7c:	00ff0e37          	lui	t3,0xff0
     e80:	00d84833          	xor	a6,a6,a3
     e84:	00851593          	slli	a1,a0,0x8
  from_bit_interleaving(tmp0, x3);
     e88:	00169693          	slli	a3,a3,0x1
     e8c:	0106c6b3          	xor	a3,a3,a6
  *(u64*)c = U64BIG(tmp0);
     e90:	00be75b3          	and	a1,t3,a1
     e94:	01851713          	slli	a4,a0,0x18
     e98:	00b76733          	or	a4,a4,a1
     e9c:	01869813          	slli	a6,a3,0x18
     ea0:	00855593          	srli	a1,a0,0x8
     ea4:	0105e833          	or	a6,a1,a6
     ea8:	006875b3          	and	a1,a6,t1
     eac:	00b76733          	or	a4,a4,a1
     eb0:	01855513          	srli	a0,a0,0x18
     eb4:	00869593          	slli	a1,a3,0x8
     eb8:	00b565b3          	or	a1,a0,a1
     ebc:	ff000eb7          	lui	t4,0xff000
     ec0:	0ff5f513          	andi	a0,a1,255
     ec4:	010ef833          	and	a6,t4,a6
     ec8:	0186d613          	srli	a2,a3,0x18
     ecc:	00a76733          	or	a4,a4,a0
     ed0:	00be75b3          	and	a1,t3,a1
     ed4:	01066633          	or	a2,a2,a6
     ed8:	0086d693          	srli	a3,a3,0x8
     edc:	00b66633          	or	a2,a2,a1
     ee0:	00e9a223          	sw	a4,4(s3)
  x4.e = s_e[4]; x4.o = s_o[4];
  from_bit_interleaving(tmp1, x4);
     ee4:	0072f3b3          	and	t2,t0,t2
     ee8:	01091713          	slli	a4,s2,0x10
  *(u64*)c = U64BIG(tmp0);
     eec:	0066f6b3          	and	a3,a3,t1
  from_bit_interleaving(tmp1, x4);
     ef0:	00e3e733          	or	a4,t2,a4
  *(u64*)c = U64BIG(tmp0);
     ef4:	00d666b3          	or	a3,a2,a3
     ef8:	00d9a023          	sw	a3,0(s3)
  from_bit_interleaving(tmp1, x4);
     efc:	00875693          	srli	a3,a4,0x8
     f00:	01497933          	and	s2,s2,s4
     f04:	0102d593          	srli	a1,t0,0x10
     f08:	00e6c6b3          	xor	a3,a3,a4
     f0c:	0125e5b3          	or	a1,a1,s2
     f10:	0066f6b3          	and	a3,a3,t1
     f14:	00d743b3          	xor	t2,a4,a3
     f18:	0085d893          	srli	a7,a1,0x8
     f1c:	00869713          	slli	a4,a3,0x8
     f20:	00774733          	xor	a4,a4,t2
     f24:	00b8c8b3          	xor	a7,a7,a1
     f28:	0068f8b3          	and	a7,a7,t1
     f2c:	00475693          	srli	a3,a4,0x4
     f30:	0115c2b3          	xor	t0,a1,a7
     f34:	00e6c6b3          	xor	a3,a3,a4
     f38:	00889593          	slli	a1,a7,0x8
     f3c:	0055c5b3          	xor	a1,a1,t0
     f40:	01f6f6b3          	and	a3,a3,t6
     f44:	00d74633          	xor	a2,a4,a3
     f48:	0045d813          	srli	a6,a1,0x4
     f4c:	00469713          	slli	a4,a3,0x4
     f50:	00c74733          	xor	a4,a4,a2
     f54:	00b84833          	xor	a6,a6,a1
     f58:	01f87833          	and	a6,a6,t6
     f5c:	00275613          	srli	a2,a4,0x2
     f60:	0105c8b3          	xor	a7,a1,a6
     f64:	00e64633          	xor	a2,a2,a4
     f68:	00481593          	slli	a1,a6,0x4
     f6c:	0115c5b3          	xor	a1,a1,a7
     f70:	01e67633          	and	a2,a2,t5
     f74:	00c74733          	xor	a4,a4,a2
     f78:	0025d513          	srli	a0,a1,0x2
     f7c:	00261613          	slli	a2,a2,0x2
     f80:	00e64733          	xor	a4,a2,a4
     f84:	00b54533          	xor	a0,a0,a1
     f88:	01e57533          	and	a0,a0,t5
     f8c:	00175693          	srli	a3,a4,0x1
     f90:	00a5c833          	xor	a6,a1,a0
     f94:	00e6c6b3          	xor	a3,a3,a4
     f98:	00251593          	slli	a1,a0,0x2
     f9c:	00f6f6b3          	and	a3,a3,a5
     fa0:	0105c5b3          	xor	a1,a1,a6
     fa4:	00d74633          	xor	a2,a4,a3
     fa8:	0015d713          	srli	a4,a1,0x1
     fac:	00b74733          	xor	a4,a4,a1
     fb0:	00f77733          	and	a4,a4,a5
     fb4:	00169693          	slli	a3,a3,0x1
     fb8:	00c6c633          	xor	a2,a3,a2
     fbc:	00e5c5b3          	xor	a1,a1,a4
     fc0:	00171713          	slli	a4,a4,0x1
     fc4:	00b747b3          	xor	a5,a4,a1
  *(u64*)(c + 8) = U64BIG(tmp1);
     fc8:	00861593          	slli	a1,a2,0x8
     fcc:	00be75b3          	and	a1,t3,a1
     fd0:	01861713          	slli	a4,a2,0x18
     fd4:	00b76733          	or	a4,a4,a1
     fd8:	01879513          	slli	a0,a5,0x18
     fdc:	00865593          	srli	a1,a2,0x8
     fe0:	00a5e533          	or	a0,a1,a0
     fe4:	006575b3          	and	a1,a0,t1
     fe8:	00b76733          	or	a4,a4,a1
     fec:	01865613          	srli	a2,a2,0x18
     ff0:	00879593          	slli	a1,a5,0x8
     ff4:	0187d693          	srli	a3,a5,0x18
     ff8:	00b665b3          	or	a1,a2,a1
     ffc:	00aefeb3          	and	t4,t4,a0
    1000:	0087d793          	srli	a5,a5,0x8
    1004:	01d6eeb3          	or	t4,a3,t4
    1008:	00be7e33          	and	t3,t3,a1

  return 0;
}
    100c:	09c12083          	lw	ra,156(sp)
    1010:	09812403          	lw	s0,152(sp)
  *(u64*)(c + 8) = U64BIG(tmp1);
    1014:	0ff5f613          	andi	a2,a1,255
    1018:	01ceee33          	or	t3,t4,t3
    101c:	0067f7b3          	and	a5,a5,t1
    1020:	00c76733          	or	a4,a4,a2
    1024:	00fe67b3          	or	a5,t3,a5
    1028:	00f9a423          	sw	a5,8(s3)
    102c:	00e9a623          	sw	a4,12(s3)
}
    1030:	09412483          	lw	s1,148(sp)
    1034:	09012903          	lw	s2,144(sp)
    1038:	08c12983          	lw	s3,140(sp)
    103c:	08812a03          	lw	s4,136(sp)
    1040:	08412a83          	lw	s5,132(sp)
    1044:	08012b03          	lw	s6,128(sp)
    1048:	07c12b83          	lw	s7,124(sp)
    104c:	07812c03          	lw	s8,120(sp)
    1050:	07412c83          	lw	s9,116(sp)
    1054:	07012d03          	lw	s10,112(sp)
    1058:	06c12d83          	lw	s11,108(sp)
    105c:	00000513          	li	a0,0
    1060:	0a010113          	addi	sp,sp,160
    1064:	00008067          	ret
      to_bit_interleaving(t0, U64BIG(*(u64*)ad));
    1068:	00082683          	lw	a3,0(a6)
    106c:	00482f03          	lw	t5,4(a6)
    1070:	00ff0eb7          	lui	t4,0xff0
    1074:	0186df93          	srli	t6,a3,0x18
    1078:	008f1593          	slli	a1,t5,0x8
    107c:	018f1613          	slli	a2,t5,0x18
    1080:	01f5efb3          	or	t6,a1,t6
    1084:	0086d513          	srli	a0,a3,0x8
    1088:	00869593          	slli	a1,a3,0x8
    108c:	00a66533          	or	a0,a2,a0
    1090:	00bef5b3          	and	a1,t4,a1
    1094:	01869693          	slli	a3,a3,0x18
    1098:	00d5e5b3          	or	a1,a1,a3
    109c:	01a576b3          	and	a3,a0,s10
    10a0:	00d5e5b3          	or	a1,a1,a3
    10a4:	0ffff693          	andi	a3,t6,255
    10a8:	00d5e5b3          	or	a1,a1,a3
    10ac:	ff0006b7          	lui	a3,0xff000
    10b0:	01feffb3          	and	t6,t4,t6
    10b4:	00a6f533          	and	a0,a3,a0
    10b8:	008f5613          	srli	a2,t5,0x8
    10bc:	01f56533          	or	a0,a0,t6
    10c0:	018f5f13          	srli	t5,t5,0x18
    10c4:	01e56533          	or	a0,a0,t5
    10c8:	01a67633          	and	a2,a2,s10
    10cc:	00c56533          	or	a0,a0,a2
    10d0:	00155613          	srli	a2,a0,0x1
    10d4:	00a64633          	xor	a2,a2,a0
    10d8:	01367633          	and	a2,a2,s3
    10dc:	00c54f33          	xor	t5,a0,a2
    10e0:	00161513          	slli	a0,a2,0x1
    10e4:	01e54533          	xor	a0,a0,t5
    10e8:	00255613          	srli	a2,a0,0x2
    10ec:	00a64633          	xor	a2,a2,a0
    10f0:	01667633          	and	a2,a2,s6
    10f4:	00c54f33          	xor	t5,a0,a2
    10f8:	00261513          	slli	a0,a2,0x2
    10fc:	01e54533          	xor	a0,a0,t5
    1100:	00455f13          	srli	t5,a0,0x4
    1104:	00af4f33          	xor	t5,t5,a0
    1108:	017f7f33          	and	t5,t5,s7
    110c:	01e54633          	xor	a2,a0,t5
    1110:	004f1513          	slli	a0,t5,0x4
    1114:	00c54533          	xor	a0,a0,a2
    1118:	00855613          	srli	a2,a0,0x8
    111c:	00a64633          	xor	a2,a2,a0
    1120:	01a67633          	and	a2,a2,s10
    1124:	00c54533          	xor	a0,a0,a2
    1128:	00861613          	slli	a2,a2,0x8
    112c:	00a64633          	xor	a2,a2,a0
    1130:	0015d513          	srli	a0,a1,0x1
    1134:	00b54533          	xor	a0,a0,a1
    1138:	01357533          	and	a0,a0,s3
    113c:	00a5cf33          	xor	t5,a1,a0
    1140:	00151593          	slli	a1,a0,0x1
    1144:	01e5c5b3          	xor	a1,a1,t5
    1148:	0025d513          	srli	a0,a1,0x2
    114c:	00b54533          	xor	a0,a0,a1
    1150:	01657533          	and	a0,a0,s6
    1154:	00a5cf33          	xor	t5,a1,a0
    1158:	00251593          	slli	a1,a0,0x2
    115c:	01e5c5b3          	xor	a1,a1,t5
    1160:	0045d513          	srli	a0,a1,0x4
    1164:	00b54533          	xor	a0,a0,a1
    1168:	01757533          	and	a0,a0,s7
    116c:	00a5cf33          	xor	t5,a1,a0
    1170:	00451593          	slli	a1,a0,0x4
    1174:	01e5c5b3          	xor	a1,a1,t5
    1178:	0085d513          	srli	a0,a1,0x8
    117c:	00b54533          	xor	a0,a0,a1
    1180:	01a57533          	and	a0,a0,s10
    1184:	00a5c5b3          	xor	a1,a1,a0
    1188:	000107b7          	lui	a5,0x10
    118c:	00851513          	slli	a0,a0,0x8
    1190:	ffff02b7          	lui	t0,0xffff0
    1194:	00b54533          	xor	a0,a0,a1
    1198:	fff78593          	addi	a1,a5,-1 # ffff <_bss_end+0xbd8f>
    119c:	00b67f33          	and	t5,a2,a1
    11a0:	01051f93          	slli	t6,a0,0x10
    11a4:	01065613          	srli	a2,a2,0x10
    11a8:	00557533          	and	a0,a0,t0
    11ac:	00a66633          	or	a2,a2,a0
      s_o[0] ^= t0.o;
    11b0:	01864c33          	xor	s8,a2,s8
      to_bit_interleaving(t1, U64BIG(*(u64*)(ad + 8)));
    11b4:	00c82503          	lw	a0,12(a6)
      s_o[0] ^= t0.o;
    11b8:	03812c23          	sw	s8,56(sp)
      to_bit_interleaving(t1, U64BIG(*(u64*)(ad + 8)));
    11bc:	00882c03          	lw	s8,8(a6)
      to_bit_interleaving(t0, U64BIG(*(u64*)ad));
    11c0:	01ff6f33          	or	t5,t5,t6
      to_bit_interleaving(t1, U64BIG(*(u64*)(ad + 8)));
    11c4:	01851613          	slli	a2,a0,0x18
    11c8:	008c5f93          	srli	t6,s8,0x8
    11cc:	01f66fb3          	or	t6,a2,t6
      s_e[0] ^= t0.e;
    11d0:	019f4cb3          	xor	s9,t5,s9
      to_bit_interleaving(t1, U64BIG(*(u64*)(ad + 8)));
    11d4:	00851613          	slli	a2,a0,0x8
    11d8:	018c5f13          	srli	t5,s8,0x18
    11dc:	01e66f33          	or	t5,a2,t5
      s_e[0] ^= t0.e;
    11e0:	05912623          	sw	s9,76(sp)
      to_bit_interleaving(t1, U64BIG(*(u64*)(ad + 8)));
    11e4:	008c1c93          	slli	s9,s8,0x8
    11e8:	01f6f6b3          	and	a3,a3,t6
    11ec:	019efcb3          	and	s9,t4,s9
    11f0:	01eefeb3          	and	t4,t4,t5
    11f4:	01d6e6b3          	or	a3,a3,t4
    11f8:	00855393          	srli	t2,a0,0x8
    11fc:	018c1c13          	slli	s8,s8,0x18
    1200:	01855513          	srli	a0,a0,0x18
    1204:	01aff633          	and	a2,t6,s10
    1208:	018cec33          	or	s8,s9,s8
    120c:	00a6e533          	or	a0,a3,a0
    1210:	01a3f3b3          	and	t2,t2,s10
    1214:	00756533          	or	a0,a0,t2
    1218:	00cc6633          	or	a2,s8,a2
    121c:	0fff7c13          	andi	s8,t5,255
    1220:	01866633          	or	a2,a2,s8
    1224:	00155c13          	srli	s8,a0,0x1
    1228:	00ac4c33          	xor	s8,s8,a0
    122c:	013c7c33          	and	s8,s8,s3
    1230:	018543b3          	xor	t2,a0,s8
    1234:	001c1513          	slli	a0,s8,0x1
    1238:	00754533          	xor	a0,a0,t2
    123c:	00255693          	srli	a3,a0,0x2
    1240:	00a6c6b3          	xor	a3,a3,a0
    1244:	0166f6b3          	and	a3,a3,s6
    1248:	00d543b3          	xor	t2,a0,a3
    124c:	00269513          	slli	a0,a3,0x2
    1250:	00754533          	xor	a0,a0,t2
    1254:	00455e93          	srli	t4,a0,0x4
    1258:	00aeceb3          	xor	t4,t4,a0
    125c:	017efeb3          	and	t4,t4,s7
    1260:	01d546b3          	xor	a3,a0,t4
    1264:	004e9513          	slli	a0,t4,0x4
    1268:	00d54533          	xor	a0,a0,a3
    126c:	00855693          	srli	a3,a0,0x8
    1270:	00a6c6b3          	xor	a3,a3,a0
    1274:	01a6f6b3          	and	a3,a3,s10
    1278:	00d54533          	xor	a0,a0,a3
    127c:	00869693          	slli	a3,a3,0x8
    1280:	00a6c6b3          	xor	a3,a3,a0
    1284:	00165513          	srli	a0,a2,0x1
    1288:	00c54533          	xor	a0,a0,a2
    128c:	01357533          	and	a0,a0,s3
    1290:	00a64633          	xor	a2,a2,a0
    1294:	00151513          	slli	a0,a0,0x1
    1298:	00c54633          	xor	a2,a0,a2
    129c:	00265513          	srli	a0,a2,0x2
    12a0:	00c54533          	xor	a0,a0,a2
    12a4:	01657533          	and	a0,a0,s6
    12a8:	00a64c33          	xor	s8,a2,a0
    12ac:	00251613          	slli	a2,a0,0x2
    12b0:	01864633          	xor	a2,a2,s8
    12b4:	00465513          	srli	a0,a2,0x4
    12b8:	00c54533          	xor	a0,a0,a2
    12bc:	01757533          	and	a0,a0,s7
    12c0:	00a64eb3          	xor	t4,a2,a0
    12c4:	00451613          	slli	a2,a0,0x4
    12c8:	01d64633          	xor	a2,a2,t4
    12cc:	00865513          	srli	a0,a2,0x8
    12d0:	00c54533          	xor	a0,a0,a2
    12d4:	01a57533          	and	a0,a0,s10
    12d8:	00a64633          	xor	a2,a2,a0
    12dc:	00851513          	slli	a0,a0,0x8
      s_e[1] ^= t1.e;
    12e0:	01012783          	lw	a5,16(sp)
      to_bit_interleaving(t1, U64BIG(*(u64*)(ad + 8)));
    12e4:	00c54633          	xor	a2,a0,a2
    12e8:	01061513          	slli	a0,a2,0x10
    12ec:	00b6f5b3          	and	a1,a3,a1
    12f0:	00a5e5b3          	or	a1,a1,a0
      s_e[1] ^= t1.e;
    12f4:	00f5c7b3          	xor	a5,a1,a5
    12f8:	04f12823          	sw	a5,80(sp)
      s_o[1] ^= t1.o;
    12fc:	01412783          	lw	a5,20(sp)
      to_bit_interleaving(t1, U64BIG(*(u64*)(ad + 8)));
    1300:	00567633          	and	a2,a2,t0
    1304:	0106d693          	srli	a3,a3,0x10
    1308:	00c6e633          	or	a2,a3,a2
      s_o[1] ^= t1.o;
    130c:	00f647b3          	xor	a5,a2,a5
      P8();
    1310:	03810693          	addi	a3,sp,56
    1314:	04c10613          	addi	a2,sp,76
    1318:	00c00593          	li	a1,12
    131c:	00600513          	li	a0,6
    1320:	02612623          	sw	t1,44(sp)
    1324:	03c12423          	sw	t3,40(sp)
      to_bit_interleaving(t1, U64BIG(*(u64*)(ad + 8)));
    1328:	03012223          	sw	a6,36(sp)
      s_o[1] ^= t1.o;
    132c:	02f12e23          	sw	a5,60(sp)
      P8();
    1330:	349000ef          	jal	ra,1e78 <ROUND>
    1334:	03810693          	addi	a3,sp,56
    1338:	04c10613          	addi	a2,sp,76
    133c:	00c00593          	li	a1,12
    1340:	00300513          	li	a0,3
    1344:	335000ef          	jal	ra,1e78 <ROUND>
    1348:	03810693          	addi	a3,sp,56
    134c:	04c10613          	addi	a2,sp,76
    1350:	00900593          	li	a1,9
    1354:	00600513          	li	a0,6
    1358:	321000ef          	jal	ra,1e78 <ROUND>
    135c:	03810693          	addi	a3,sp,56
    1360:	04c10613          	addi	a2,sp,76
    1364:	00900593          	li	a1,9
    1368:	00300513          	li	a0,3
    136c:	30d000ef          	jal	ra,1e78 <ROUND>
    1370:	03810693          	addi	a3,sp,56
    1374:	04c10613          	addi	a2,sp,76
    1378:	00600593          	li	a1,6
    137c:	00c00513          	li	a0,12
    1380:	2f9000ef          	jal	ra,1e78 <ROUND>
    1384:	03810693          	addi	a3,sp,56
    1388:	04c10613          	addi	a2,sp,76
    138c:	00600593          	li	a1,6
    1390:	00900513          	li	a0,9
    1394:	2e5000ef          	jal	ra,1e78 <ROUND>
    1398:	03810693          	addi	a3,sp,56
    139c:	04c10613          	addi	a2,sp,76
    13a0:	00300593          	li	a1,3
    13a4:	00c00513          	li	a0,12
    13a8:	2d1000ef          	jal	ra,1e78 <ROUND>
    13ac:	03810693          	addi	a3,sp,56
    13b0:	04c10613          	addi	a2,sp,76
    13b4:	00300593          	li	a1,3
    13b8:	00900513          	li	a0,9
    13bc:	2bd000ef          	jal	ra,1e78 <ROUND>
      adlen -= RATE;
    13c0:	02812e03          	lw	t3,40(sp)
    13c4:	02c12303          	lw	t1,44(sp)
      ad += RATE;
    13c8:	02412803          	lw	a6,36(sp)
      adlen -= RATE;
    13cc:	ff0e0693          	addi	a3,t3,-16 # fefff0 <_stack_start+0xfd9de8>
    13d0:	01c6b633          	sltu	a2,a3,t3
    13d4:	fff30313          	addi	t1,t1,-1 # 1fffff <_stack_start+0x1e9df7>
    13d8:	00068e13          	mv	t3,a3
    13dc:	00660333          	add	t1,a2,t1
      ad += RATE;
    13e0:	01080813          	addi	a6,a6,16
      s_e[1] ^= t1.e;
    13e4:	05012783          	lw	a5,80(sp)
      s_e[0] ^= t0.e;
    13e8:	04c12c83          	lw	s9,76(sp)
      s_o[0] ^= t0.o;
    13ec:	03812c03          	lw	s8,56(sp)
      s_e[1] ^= t1.e;
    13f0:	00f12823          	sw	a5,16(sp)
      s_o[1] ^= t1.o;
    13f4:	03c12783          	lw	a5,60(sp)
    13f8:	00f12a23          	sw	a5,20(sp)
    while (adlen >= RATE) {
    13fc:	c60316e3          	bnez	t1,1068 <crypto_aead_encrypt+0xfdc>
    1400:	00f00693          	li	a3,15
    1404:	c7c6e2e3          	bltu	a3,t3,1068 <crypto_aead_encrypt+0xfdc>
    1408:	01ca9793          	slli	a5,s5,0x1c
    140c:	004dd513          	srli	a0,s11,0x4
    1410:	00a7e533          	or	a0,a5,a0
    1414:	00451793          	slli	a5,a0,0x4
    1418:	004ad593          	srli	a1,s5,0x4
    141c:	ff000613          	li	a2,-16
    1420:	fff00693          	li	a3,-1
    1424:	02f12223          	sw	a5,36(sp)
    1428:	4a9020ef          	jal	ra,40d0 <__muldi3>
    142c:	01b50b33          	add	s6,a0,s11
    1430:	015588b3          	add	a7,a1,s5
    1434:	00ab3533          	sltu	a0,s6,a0
    1438:	011507b3          	add	a5,a0,a7
    143c:	02f12423          	sw	a5,40(sp)
    for (i = 0; i < adlen; ++i, ++ad)
    1440:	00000b93          	li	s7,0
    tmp1 = 0;
    1444:	00000d13          	li	s10,0
    1448:	00000993          	li	s3,0
    tmp0 = 0;
    144c:	00000a93          	li	s5,0
    1450:	00000d93          	li	s11,0
    for (i = 0; i < adlen; ++i, ++ad)
    1454:	02812783          	lw	a5,40(sp)
    1458:	2e079063          	bnez	a5,1738 <crypto_aead_encrypt+0x16ac>
    145c:	2d6bee63          	bltu	s7,s6,1738 <crypto_aead_encrypt+0x16ac>
    if (adlen < 8)
    1460:	00700613          	li	a2,7
    1464:	33666a63          	bltu	a2,s6,1798 <crypto_aead_encrypt+0x170c>
      tmp0 ^= INS_BYTE64(0x80, adlen);
    1468:	41660633          	sub	a2,a2,s6
    146c:	00361613          	slli	a2,a2,0x3
    1470:	08000513          	li	a0,128
    1474:	00000593          	li	a1,0
    1478:	42f020ef          	jal	ra,40a6 <__ashldi3>
    147c:	00aacab3          	xor	s5,s5,a0
    1480:	00bdcdb3          	xor	s11,s11,a1
    to_bit_interleaving(t0, tmp0);
    1484:	001ad613          	srli	a2,s5,0x1
    1488:	222228b7          	lui	a7,0x22222
    148c:	22288713          	addi	a4,a7,546 # 22222222 <_stack_start+0x2220c01a>
    1490:	01564633          	xor	a2,a2,s5
    1494:	00e67633          	and	a2,a2,a4
    1498:	00cac7b3          	xor	a5,s5,a2
    149c:	00161693          	slli	a3,a2,0x1
    14a0:	00f6c6b3          	xor	a3,a3,a5
    14a4:	0026d613          	srli	a2,a3,0x2
    14a8:	00d647b3          	xor	a5,a2,a3
    14ac:	0c0c1637          	lui	a2,0xc0c1
    14b0:	c0c60e93          	addi	t4,a2,-1012 # c0c0c0c <_stack_start+0xc0aaa04>
    14b4:	01d7f633          	and	a2,a5,t4
    14b8:	00c6c6b3          	xor	a3,a3,a2
    14bc:	00261793          	slli	a5,a2,0x2
    14c0:	00d7c7b3          	xor	a5,a5,a3
    14c4:	0047d613          	srli	a2,a5,0x4
    14c8:	00f006b7          	lui	a3,0xf00
    14cc:	0f068313          	addi	t1,a3,240 # f000f0 <_stack_start+0xee9ee8>
    14d0:	00f64633          	xor	a2,a2,a5
    14d4:	00667633          	and	a2,a2,t1
    14d8:	00c7c7b3          	xor	a5,a5,a2
    14dc:	00461693          	slli	a3,a2,0x4
    14e0:	00f6c6b3          	xor	a3,a3,a5
    14e4:	0086d793          	srli	a5,a3,0x8
    14e8:	000105b7          	lui	a1,0x10
    14ec:	f0058513          	addi	a0,a1,-256 # ff00 <_bss_end+0xbc90>
    14f0:	00d7c7b3          	xor	a5,a5,a3
    14f4:	001dd613          	srli	a2,s11,0x1
    14f8:	00a7f7b3          	and	a5,a5,a0
    14fc:	01b64633          	xor	a2,a2,s11
    1500:	00e67633          	and	a2,a2,a4
    1504:	00f6c6b3          	xor	a3,a3,a5
    1508:	00879793          	slli	a5,a5,0x8
    150c:	00cdcfb3          	xor	t6,s11,a2
    1510:	00d7c7b3          	xor	a5,a5,a3
    1514:	00161693          	slli	a3,a2,0x1
    1518:	01f6c6b3          	xor	a3,a3,t6
    151c:	0026d613          	srli	a2,a3,0x2
    1520:	00d64633          	xor	a2,a2,a3
    1524:	01d67633          	and	a2,a2,t4
    1528:	00c6c833          	xor	a6,a3,a2
    152c:	00261693          	slli	a3,a2,0x2
    1530:	0106c6b3          	xor	a3,a3,a6
    1534:	0046d613          	srli	a2,a3,0x4
    1538:	00d64633          	xor	a2,a2,a3
    153c:	00667633          	and	a2,a2,t1
    1540:	00c6c833          	xor	a6,a3,a2
    1544:	00461693          	slli	a3,a2,0x4
    1548:	0106c6b3          	xor	a3,a3,a6
    154c:	0086d613          	srli	a2,a3,0x8
    1550:	00d64633          	xor	a2,a2,a3
    1554:	00a67633          	and	a2,a2,a0
    1558:	00c6c6b3          	xor	a3,a3,a2
    155c:	00861613          	slli	a2,a2,0x8
    1560:	00d646b3          	xor	a3,a2,a3
    1564:	fff58593          	addi	a1,a1,-1
    1568:	00b7f633          	and	a2,a5,a1
    156c:	01069813          	slli	a6,a3,0x10
    1570:	01066633          	or	a2,a2,a6
    1574:	ffff0837          	lui	a6,0xffff0
    1578:	0106f6b3          	and	a3,a3,a6
    157c:	0107d793          	srli	a5,a5,0x10
    1580:	00d7e6b3          	or	a3,a5,a3
    to_bit_interleaving(t1, tmp1);
    1584:	001d5793          	srli	a5,s10,0x1
    1588:	01a7c7b3          	xor	a5,a5,s10
    158c:	00e7f7b3          	and	a5,a5,a4
    1590:	00fd4f33          	xor	t5,s10,a5
    s_o[0] ^= t0.o;
    1594:	0186cc33          	xor	s8,a3,s8
    to_bit_interleaving(t1, tmp1);
    1598:	00179693          	slli	a3,a5,0x1
    159c:	01e6c6b3          	xor	a3,a3,t5
    15a0:	0026d793          	srli	a5,a3,0x2
    15a4:	00d7c7b3          	xor	a5,a5,a3
    15a8:	01d7f7b3          	and	a5,a5,t4
    s_e[0] ^= t0.e;
    15ac:	01964cb3          	xor	s9,a2,s9
    15b0:	00f6c633          	xor	a2,a3,a5
    to_bit_interleaving(t1, tmp1);
    15b4:	00279693          	slli	a3,a5,0x2
    15b8:	00c6c6b3          	xor	a3,a3,a2
    15bc:	0019d893          	srli	a7,s3,0x1
    15c0:	0046d613          	srli	a2,a3,0x4
    15c4:	0138c8b3          	xor	a7,a7,s3
    15c8:	00e8f8b3          	and	a7,a7,a4
    15cc:	00d64633          	xor	a2,a2,a3
    15d0:	00667633          	and	a2,a2,t1
    15d4:	0119ce33          	xor	t3,s3,a7
    15d8:	00189713          	slli	a4,a7,0x1
    15dc:	01c74733          	xor	a4,a4,t3
    15e0:	00c6c7b3          	xor	a5,a3,a2
    15e4:	00461693          	slli	a3,a2,0x4
    15e8:	00f6c6b3          	xor	a3,a3,a5
    15ec:	00275613          	srli	a2,a4,0x2
    15f0:	0086d793          	srli	a5,a3,0x8
    15f4:	00e64633          	xor	a2,a2,a4
    15f8:	01d67633          	and	a2,a2,t4
    15fc:	00d7c7b3          	xor	a5,a5,a3
    1600:	00c748b3          	xor	a7,a4,a2
    1604:	00a7f7b3          	and	a5,a5,a0
    1608:	00261713          	slli	a4,a2,0x2
    160c:	01174733          	xor	a4,a4,a7
    1610:	00f6c6b3          	xor	a3,a3,a5
    1614:	00879793          	slli	a5,a5,0x8
    1618:	00d7c7b3          	xor	a5,a5,a3
    161c:	00475693          	srli	a3,a4,0x4
    1620:	00e6c6b3          	xor	a3,a3,a4
    1624:	0066f6b3          	and	a3,a3,t1
    1628:	00d74733          	xor	a4,a4,a3
    162c:	00469693          	slli	a3,a3,0x4
    1630:	00e6c733          	xor	a4,a3,a4
    1634:	00875693          	srli	a3,a4,0x8
    1638:	00e6c6b3          	xor	a3,a3,a4
    163c:	00a6f533          	and	a0,a3,a0
    1640:	00a74733          	xor	a4,a4,a0
    1644:	00851513          	slli	a0,a0,0x8
    1648:	00e54733          	xor	a4,a0,a4
    164c:	01071693          	slli	a3,a4,0x10
    1650:	00b7f5b3          	and	a1,a5,a1
    1654:	01077733          	and	a4,a4,a6
    1658:	0107d793          	srli	a5,a5,0x10
    165c:	00e7e733          	or	a4,a5,a4
    1660:	00d5e5b3          	or	a1,a1,a3
    s_o[1] ^= t1.o;
    1664:	01412783          	lw	a5,20(sp)
    s_e[1] ^= t1.e;
    1668:	01012683          	lw	a3,16(sp)
    P8();
    166c:	04c10613          	addi	a2,sp,76
    s_o[1] ^= t1.o;
    1670:	00f74b33          	xor	s6,a4,a5
    s_e[1] ^= t1.e;
    1674:	00d5cbb3          	xor	s7,a1,a3
    P8();
    1678:	00600513          	li	a0,6
    167c:	03810693          	addi	a3,sp,56
    1680:	00c00593          	li	a1,12
    s_e[0] ^= t0.e;
    1684:	05912623          	sw	s9,76(sp)
    s_o[0] ^= t0.o;
    1688:	03812c23          	sw	s8,56(sp)
    s_e[1] ^= t1.e;
    168c:	05712823          	sw	s7,80(sp)
    s_o[1] ^= t1.o;
    1690:	03612e23          	sw	s6,60(sp)
    P8();
    1694:	7e4000ef          	jal	ra,1e78 <ROUND>
    1698:	03810693          	addi	a3,sp,56
    169c:	04c10613          	addi	a2,sp,76
    16a0:	00c00593          	li	a1,12
    16a4:	00300513          	li	a0,3
    16a8:	7d0000ef          	jal	ra,1e78 <ROUND>
    16ac:	03810693          	addi	a3,sp,56
    16b0:	04c10613          	addi	a2,sp,76
    16b4:	00900593          	li	a1,9
    16b8:	00600513          	li	a0,6
    16bc:	7bc000ef          	jal	ra,1e78 <ROUND>
    16c0:	03810693          	addi	a3,sp,56
    16c4:	04c10613          	addi	a2,sp,76
    16c8:	00900593          	li	a1,9
    16cc:	00300513          	li	a0,3
    16d0:	7a8000ef          	jal	ra,1e78 <ROUND>
    16d4:	03810693          	addi	a3,sp,56
    16d8:	04c10613          	addi	a2,sp,76
    16dc:	00600593          	li	a1,6
    16e0:	00c00513          	li	a0,12
    16e4:	794000ef          	jal	ra,1e78 <ROUND>
    16e8:	03810693          	addi	a3,sp,56
    16ec:	04c10613          	addi	a2,sp,76
    16f0:	00600593          	li	a1,6
    16f4:	00900513          	li	a0,9
    16f8:	780000ef          	jal	ra,1e78 <ROUND>
    16fc:	03810693          	addi	a3,sp,56
    1700:	04c10613          	addi	a2,sp,76
    1704:	00300593          	li	a1,3
    1708:	00c00513          	li	a0,12
    170c:	76c000ef          	jal	ra,1e78 <ROUND>
    1710:	03810693          	addi	a3,sp,56
    1714:	04c10613          	addi	a2,sp,76
    1718:	00300593          	li	a1,3
    171c:	00900513          	li	a0,9
    1720:	758000ef          	jal	ra,1e78 <ROUND>
    1724:	85cff06f          	j	780 <crypto_aead_encrypt+0x6f4>
    1728:	02012803          	lw	a6,32(sp)
    172c:	000d8e13          	mv	t3,s11
    1730:	000a8313          	mv	t1,s5
    1734:	cb1ff06f          	j	13e4 <crypto_aead_encrypt+0x1358>
        tmp0 ^= INS_BYTE64(*ad, i);
    1738:	02412783          	lw	a5,36(sp)
    173c:	02012703          	lw	a4,32(sp)
    1740:	00fb87b3          	add	a5,s7,a5
    1744:	00f707b3          	add	a5,a4,a5
    1748:	0007c503          	lbu	a0,0(a5)
      if (i < 8)
    174c:	00700793          	li	a5,7
    1750:	0377e463          	bltu	a5,s7,1778 <crypto_aead_encrypt+0x16ec>
        tmp0 ^= INS_BYTE64(*ad, i);
    1754:	41700633          	neg	a2,s7
    1758:	00361613          	slli	a2,a2,0x3
    175c:	03860613          	addi	a2,a2,56
    1760:	00000593          	li	a1,0
    1764:	143020ef          	jal	ra,40a6 <__ashldi3>
    1768:	00aacab3          	xor	s5,s5,a0
    176c:	00bdcdb3          	xor	s11,s11,a1
    for (i = 0; i < adlen; ++i, ++ad)
    1770:	001b8b93          	addi	s7,s7,1
    1774:	ce1ff06f          	j	1454 <crypto_aead_encrypt+0x13c8>
        tmp1 ^= INS_BYTE64(*ad, i % 8);
    1778:	fffbc613          	not	a2,s7
    177c:	00767613          	andi	a2,a2,7
    1780:	00361613          	slli	a2,a2,0x3
    1784:	00000593          	li	a1,0
    1788:	11f020ef          	jal	ra,40a6 <__ashldi3>
    178c:	00ad4d33          	xor	s10,s10,a0
    1790:	00b9c9b3          	xor	s3,s3,a1
    1794:	fddff06f          	j	1770 <crypto_aead_encrypt+0x16e4>
      tmp1 ^= INS_BYTE64(0x80, adlen % 8);
    1798:	fffb4613          	not	a2,s6
    179c:	00767613          	andi	a2,a2,7
    17a0:	00361613          	slli	a2,a2,0x3
    17a4:	08000513          	li	a0,128
    17a8:	00000593          	li	a1,0
    17ac:	0fb020ef          	jal	ra,40a6 <__ashldi3>
    17b0:	00ad4d33          	xor	s10,s10,a0
    17b4:	00b9c9b3          	xor	s3,s3,a1
    17b8:	ccdff06f          	j	1484 <crypto_aead_encrypt+0x13f8>
    to_bit_interleaving(t0, U64BIG(*(u64*)m));
    17bc:	0008af83          	lw	t6,0(a7)
    17c0:	0048a603          	lw	a2,4(a7)
    17c4:	00ff05b7          	lui	a1,0xff0
    17c8:	008fd693          	srli	a3,t6,0x8
    17cc:	01861793          	slli	a5,a2,0x18
    17d0:	00d7e6b3          	or	a3,a5,a3
    17d4:	018fd513          	srli	a0,t6,0x18
    17d8:	00861793          	slli	a5,a2,0x8
    17dc:	00a7e533          	or	a0,a5,a0
    17e0:	008f9793          	slli	a5,t6,0x8
    17e4:	00f5ff33          	and	t5,a1,a5
    17e8:	018f9793          	slli	a5,t6,0x18
    17ec:	00ff67b3          	or	a5,t5,a5
    17f0:	0136ff33          	and	t5,a3,s3
    17f4:	01e7e7b3          	or	a5,a5,t5
    17f8:	0ff57f13          	andi	t5,a0,255
    17fc:	01e7e7b3          	or	a5,a5,t5
    1800:	ff000f37          	lui	t5,0xff000
    1804:	00a5f533          	and	a0,a1,a0
    1808:	00df76b3          	and	a3,t5,a3
    180c:	00865713          	srli	a4,a2,0x8
    1810:	00a6e6b3          	or	a3,a3,a0
    1814:	01865613          	srli	a2,a2,0x18
    1818:	00c6e6b3          	or	a3,a3,a2
    181c:	01377733          	and	a4,a4,s3
    1820:	00e6e6b3          	or	a3,a3,a4
    1824:	0016d713          	srli	a4,a3,0x1
    1828:	00d74733          	xor	a4,a4,a3
    182c:	01777733          	and	a4,a4,s7
    1830:	00e6c633          	xor	a2,a3,a4
    1834:	00171693          	slli	a3,a4,0x1
    1838:	00c6c6b3          	xor	a3,a3,a2
    183c:	0026d713          	srli	a4,a3,0x2
    1840:	00d74733          	xor	a4,a4,a3
    1844:	01a77733          	and	a4,a4,s10
    1848:	00e6c633          	xor	a2,a3,a4
    184c:	00271693          	slli	a3,a4,0x2
    1850:	00c6c6b3          	xor	a3,a3,a2
    1854:	0046d613          	srli	a2,a3,0x4
    1858:	00d64633          	xor	a2,a2,a3
    185c:	01b67633          	and	a2,a2,s11
    1860:	00c6c733          	xor	a4,a3,a2
    1864:	00461693          	slli	a3,a2,0x4
    1868:	00e6c6b3          	xor	a3,a3,a4
    186c:	0086d713          	srli	a4,a3,0x8
    1870:	00d74733          	xor	a4,a4,a3
    1874:	01377733          	and	a4,a4,s3
    1878:	00e6c6b3          	xor	a3,a3,a4
    187c:	00871713          	slli	a4,a4,0x8
    1880:	00d74733          	xor	a4,a4,a3
    1884:	0017d693          	srli	a3,a5,0x1
    1888:	00f6c6b3          	xor	a3,a3,a5
    188c:	0176f6b3          	and	a3,a3,s7
    1890:	00d7c633          	xor	a2,a5,a3
    1894:	00169793          	slli	a5,a3,0x1
    1898:	00c7c7b3          	xor	a5,a5,a2
    189c:	0027d693          	srli	a3,a5,0x2
    18a0:	00f6c6b3          	xor	a3,a3,a5
    18a4:	01a6f6b3          	and	a3,a3,s10
    18a8:	00d7c633          	xor	a2,a5,a3
    18ac:	00269793          	slli	a5,a3,0x2
    18b0:	00c7c7b3          	xor	a5,a5,a2
    18b4:	0047d693          	srli	a3,a5,0x4
    18b8:	00f6c6b3          	xor	a3,a3,a5
    18bc:	01b6f6b3          	and	a3,a3,s11
    18c0:	00d7c633          	xor	a2,a5,a3
    18c4:	00469793          	slli	a5,a3,0x4
    18c8:	00c7c7b3          	xor	a5,a5,a2
    18cc:	0087d693          	srli	a3,a5,0x8
    18d0:	00f6c6b3          	xor	a3,a3,a5
    18d4:	0136f6b3          	and	a3,a3,s3
    18d8:	00d7c7b3          	xor	a5,a5,a3
    18dc:	00869693          	slli	a3,a3,0x8
    18e0:	fffe8613          	addi	a2,t4,-1 # feffff <_stack_start+0xfd9df7>
    18e4:	00f6c7b3          	xor	a5,a3,a5
    18e8:	01079513          	slli	a0,a5,0x10
    18ec:	00c776b3          	and	a3,a4,a2
    to_bit_interleaving(t1, U64BIG(*(u64*)(m + 8)));
    18f0:	00c8af83          	lw	t6,12(a7)
    to_bit_interleaving(t0, U64BIG(*(u64*)m));
    18f4:	00a6e6b3          	or	a3,a3,a0
    to_bit_interleaving(t1, U64BIG(*(u64*)(m + 8)));
    18f8:	0088a503          	lw	a0,8(a7)
    to_bit_interleaving(t0, U64BIG(*(u64*)m));
    18fc:	ffff03b7          	lui	t2,0xffff0
    1900:	01075713          	srli	a4,a4,0x10
    1904:	0077f7b3          	and	a5,a5,t2
    to_bit_interleaving(t1, U64BIG(*(u64*)(m + 8)));
    1908:	018f9293          	slli	t0,t6,0x18
    to_bit_interleaving(t0, U64BIG(*(u64*)m));
    190c:	00f767b3          	or	a5,a4,a5
    to_bit_interleaving(t1, U64BIG(*(u64*)(m + 8)));
    1910:	00855713          	srli	a4,a0,0x8
    s_e[0] ^= t0.e;
    1914:	0196c6b3          	xor	a3,a3,s9
    to_bit_interleaving(t1, U64BIG(*(u64*)(m + 8)));
    1918:	00e2e733          	or	a4,t0,a4
    191c:	008f9c93          	slli	s9,t6,0x8
    1920:	01855293          	srli	t0,a0,0x18
    1924:	005ce2b3          	or	t0,s9,t0
    1928:	00851c93          	slli	s9,a0,0x8
    192c:	0195fcb3          	and	s9,a1,s9
    1930:	01851513          	slli	a0,a0,0x18
    1934:	00ace533          	or	a0,s9,a0
    1938:	01377cb3          	and	s9,a4,s3
    193c:	01956533          	or	a0,a0,s9
    1940:	00ef7733          	and	a4,t5,a4
    1944:	0ff2fc93          	andi	s9,t0,255
    1948:	0055f2b3          	and	t0,a1,t0
    s_o[0] ^= t0.o;
    194c:	0187c7b3          	xor	a5,a5,s8
    to_bit_interleaving(t1, U64BIG(*(u64*)(m + 8)));
    1950:	00576733          	or	a4,a4,t0
    1954:	008fdc13          	srli	s8,t6,0x8
    1958:	018fdf93          	srli	t6,t6,0x18
    195c:	01f762b3          	or	t0,a4,t6
    1960:	013c7c33          	and	s8,s8,s3
    1964:	0182e2b3          	or	t0,t0,s8
    1968:	0012df93          	srli	t6,t0,0x1
    196c:	005fcfb3          	xor	t6,t6,t0
    1970:	01956533          	or	a0,a0,s9
    1974:	017ffcb3          	and	s9,t6,s7
    1978:	0192c2b3          	xor	t0,t0,s9
    197c:	001c9f93          	slli	t6,s9,0x1
    1980:	005fcfb3          	xor	t6,t6,t0
    1984:	002fd293          	srli	t0,t6,0x2
    1988:	01f2c2b3          	xor	t0,t0,t6
    198c:	01a2f2b3          	and	t0,t0,s10
    1990:	005fcfb3          	xor	t6,t6,t0
    1994:	00229293          	slli	t0,t0,0x2
    1998:	01f2c2b3          	xor	t0,t0,t6
    199c:	0042df93          	srli	t6,t0,0x4
    19a0:	005fcfb3          	xor	t6,t6,t0
    19a4:	01bfffb3          	and	t6,t6,s11
    19a8:	01f2c2b3          	xor	t0,t0,t6
    19ac:	004f9f93          	slli	t6,t6,0x4
    19b0:	005fc733          	xor	a4,t6,t0
    19b4:	00875f93          	srli	t6,a4,0x8
    19b8:	00efcfb3          	xor	t6,t6,a4
    19bc:	013ffc33          	and	s8,t6,s3
    19c0:	01874733          	xor	a4,a4,s8
    19c4:	008c1f93          	slli	t6,s8,0x8
    19c8:	00efcfb3          	xor	t6,t6,a4
    19cc:	00155713          	srli	a4,a0,0x1
    19d0:	00a74733          	xor	a4,a4,a0
    19d4:	01777733          	and	a4,a4,s7
    19d8:	00e54533          	xor	a0,a0,a4
    19dc:	00171713          	slli	a4,a4,0x1
    19e0:	00a74733          	xor	a4,a4,a0
    19e4:	00275293          	srli	t0,a4,0x2
    19e8:	00e2c2b3          	xor	t0,t0,a4
    19ec:	01a2fc33          	and	s8,t0,s10
    19f0:	01874733          	xor	a4,a4,s8
    19f4:	002c1293          	slli	t0,s8,0x2
    19f8:	00e2c2b3          	xor	t0,t0,a4
    19fc:	0042d713          	srli	a4,t0,0x4
    1a00:	00574733          	xor	a4,a4,t0
    1a04:	01b77733          	and	a4,a4,s11
    1a08:	00e2c2b3          	xor	t0,t0,a4
    1a0c:	00471713          	slli	a4,a4,0x4
    1a10:	00574533          	xor	a0,a4,t0
    1a14:	00855713          	srli	a4,a0,0x8
    1a18:	00a74733          	xor	a4,a4,a0
    1a1c:	01377c33          	and	s8,a4,s3
    1a20:	01854533          	xor	a0,a0,s8
    1a24:	008c1713          	slli	a4,s8,0x8
    1a28:	00a74733          	xor	a4,a4,a0
    1a2c:	01071293          	slli	t0,a4,0x10
    1a30:	00cff533          	and	a0,t6,a2
    1a34:	00777733          	and	a4,a4,t2
    1a38:	010fdf93          	srli	t6,t6,0x10
    1a3c:	00556533          	or	a0,a0,t0
    1a40:	00efe733          	or	a4,t6,a4
    s_e[1] ^= t1.e;
    1a44:	01654b33          	xor	s6,a0,s6
    s_o[1] ^= t1.o;
    1a48:	01574ab3          	xor	s5,a4,s5
    from_bit_interleaving(tmp0, x0);
    1a4c:	00c6f533          	and	a0,a3,a2
    1a50:	01079713          	slli	a4,a5,0x10
    1a54:	00e56533          	or	a0,a0,a4
    s_e[0] ^= t0.e;
    1a58:	04d12623          	sw	a3,76(sp)
    s_o[0] ^= t0.o;
    1a5c:	02f12c23          	sw	a5,56(sp)
    from_bit_interleaving(tmp0, x0);
    1a60:	0106d693          	srli	a3,a3,0x10
    1a64:	0077f7b3          	and	a5,a5,t2
    1a68:	00f6e7b3          	or	a5,a3,a5
    1a6c:	00855693          	srli	a3,a0,0x8
    1a70:	00a6c6b3          	xor	a3,a3,a0
    1a74:	0087df93          	srli	t6,a5,0x8
    1a78:	0136f6b3          	and	a3,a3,s3
    1a7c:	00ffcfb3          	xor	t6,t6,a5
    1a80:	00d54533          	xor	a0,a0,a3
    1a84:	00869713          	slli	a4,a3,0x8
    1a88:	013fffb3          	and	t6,t6,s3
    1a8c:	00a74733          	xor	a4,a4,a0
    1a90:	01f7c7b3          	xor	a5,a5,t6
    1a94:	008f9f93          	slli	t6,t6,0x8
    1a98:	00ffc7b3          	xor	a5,t6,a5
    1a9c:	00475513          	srli	a0,a4,0x4
    1aa0:	00e54533          	xor	a0,a0,a4
    1aa4:	0047d293          	srli	t0,a5,0x4
    1aa8:	01b57533          	and	a0,a0,s11
    1aac:	00f2c2b3          	xor	t0,t0,a5
    1ab0:	00a746b3          	xor	a3,a4,a0
    1ab4:	01b2f2b3          	and	t0,t0,s11
    1ab8:	00451713          	slli	a4,a0,0x4
    1abc:	00d74733          	xor	a4,a4,a3
    1ac0:	0057c7b3          	xor	a5,a5,t0
    1ac4:	00429293          	slli	t0,t0,0x4
    1ac8:	00f2cfb3          	xor	t6,t0,a5
    1acc:	00275693          	srli	a3,a4,0x2
    1ad0:	00e6c6b3          	xor	a3,a3,a4
    1ad4:	002fd293          	srli	t0,t6,0x2
    1ad8:	01a6f6b3          	and	a3,a3,s10
    1adc:	01f2c2b3          	xor	t0,t0,t6
    1ae0:	00d74733          	xor	a4,a4,a3
    1ae4:	01a2f2b3          	and	t0,t0,s10
    1ae8:	00269693          	slli	a3,a3,0x2
    1aec:	00e6c733          	xor	a4,a3,a4
    1af0:	005fc6b3          	xor	a3,t6,t0
    1af4:	00229293          	slli	t0,t0,0x2
    1af8:	00d2c6b3          	xor	a3,t0,a3
    1afc:	00175513          	srli	a0,a4,0x1
    1b00:	00e54533          	xor	a0,a0,a4
    1b04:	0016df93          	srli	t6,a3,0x1
    1b08:	01757533          	and	a0,a0,s7
    1b0c:	00dfcfb3          	xor	t6,t6,a3
    1b10:	00a74733          	xor	a4,a4,a0
    1b14:	017fffb3          	and	t6,t6,s7
    1b18:	00151513          	slli	a0,a0,0x1
    1b1c:	00e54733          	xor	a4,a0,a4
    1b20:	01f6c7b3          	xor	a5,a3,t6
    1b24:	001f9f93          	slli	t6,t6,0x1
    1b28:	00ffc7b3          	xor	a5,t6,a5
    *(u64*)c = U64BIG(tmp0);
    1b2c:	00871f93          	slli	t6,a4,0x8
    1b30:	01871513          	slli	a0,a4,0x18
    1b34:	01f5ffb3          	and	t6,a1,t6
    1b38:	00875293          	srli	t0,a4,0x8
    1b3c:	01f56fb3          	or	t6,a0,t6
    1b40:	01879513          	slli	a0,a5,0x18
    1b44:	00a2e533          	or	a0,t0,a0
    1b48:	013572b3          	and	t0,a0,s3
    1b4c:	005fefb3          	or	t6,t6,t0
    1b50:	01875713          	srli	a4,a4,0x18
    1b54:	00879293          	slli	t0,a5,0x8
    1b58:	005762b3          	or	t0,a4,t0
    1b5c:	0ff2f713          	andi	a4,t0,255
    1b60:	00af7533          	and	a0,t5,a0
    1b64:	0187d693          	srli	a3,a5,0x18
    1b68:	00efe733          	or	a4,t6,a4
    1b6c:	00a6e6b3          	or	a3,a3,a0
    1b70:	0087df93          	srli	t6,a5,0x8
    1b74:	0055f7b3          	and	a5,a1,t0
    1b78:	00f6e6b3          	or	a3,a3,a5
    1b7c:	013ff7b3          	and	a5,t6,s3
    1b80:	00f6e7b3          	or	a5,a3,a5
    1b84:	00f82023          	sw	a5,0(a6) # ffff0000 <_stack_start+0xfffd9df8>
    from_bit_interleaving(tmp1, x1);
    1b88:	00cb7633          	and	a2,s6,a2
    1b8c:	010a9793          	slli	a5,s5,0x10
    1b90:	00f667b3          	or	a5,a2,a5
    *(u64*)c = U64BIG(tmp0);
    1b94:	00e82223          	sw	a4,4(a6)
    from_bit_interleaving(tmp1, x1);
    1b98:	0087d713          	srli	a4,a5,0x8
    1b9c:	00f74733          	xor	a4,a4,a5
    1ba0:	01377733          	and	a4,a4,s3
    1ba4:	00e7c633          	xor	a2,a5,a4
    1ba8:	00871793          	slli	a5,a4,0x8
    1bac:	00c7c7b3          	xor	a5,a5,a2
    1bb0:	0047d613          	srli	a2,a5,0x4
    s_e[1] ^= t1.e;
    1bb4:	05612823          	sw	s6,80(sp)
    s_o[1] ^= t1.o;
    1bb8:	03512e23          	sw	s5,60(sp)
    from_bit_interleaving(tmp1, x1);
    1bbc:	00f64633          	xor	a2,a2,a5
    1bc0:	007afab3          	and	s5,s5,t2
    1bc4:	010b5b13          	srli	s6,s6,0x10
    1bc8:	015b6ab3          	or	s5,s6,s5
    1bcc:	01b67633          	and	a2,a2,s11
    1bd0:	00c7c733          	xor	a4,a5,a2
    1bd4:	00461793          	slli	a5,a2,0x4
    1bd8:	008ad613          	srli	a2,s5,0x8
    1bdc:	01564633          	xor	a2,a2,s5
    1be0:	01367633          	and	a2,a2,s3
    1be4:	00cacab3          	xor	s5,s5,a2
    1be8:	00861693          	slli	a3,a2,0x8
    1bec:	0156c6b3          	xor	a3,a3,s5
    1bf0:	0046d613          	srli	a2,a3,0x4
    1bf4:	00d64633          	xor	a2,a2,a3
    1bf8:	00e7c7b3          	xor	a5,a5,a4
    1bfc:	01b67633          	and	a2,a2,s11
    1c00:	00c6c3b3          	xor	t2,a3,a2
    1c04:	0027d713          	srli	a4,a5,0x2
    1c08:	00461693          	slli	a3,a2,0x4
    1c0c:	0076c6b3          	xor	a3,a3,t2
    1c10:	00f74733          	xor	a4,a4,a5
    1c14:	01a77733          	and	a4,a4,s10
    1c18:	0026d613          	srli	a2,a3,0x2
    1c1c:	00e7c7b3          	xor	a5,a5,a4
    1c20:	00d64633          	xor	a2,a2,a3
    1c24:	00271713          	slli	a4,a4,0x2
    1c28:	00f74733          	xor	a4,a4,a5
    1c2c:	01a67633          	and	a2,a2,s10
    1c30:	00c6c533          	xor	a0,a3,a2
    1c34:	00175793          	srli	a5,a4,0x1
    1c38:	00261693          	slli	a3,a2,0x2
    1c3c:	00a6c6b3          	xor	a3,a3,a0
    1c40:	00e7c7b3          	xor	a5,a5,a4
    1c44:	0177f7b3          	and	a5,a5,s7
    1c48:	0016d613          	srli	a2,a3,0x1
    1c4c:	00f74733          	xor	a4,a4,a5
    1c50:	00d64633          	xor	a2,a2,a3
    1c54:	00179793          	slli	a5,a5,0x1
    1c58:	00e7c733          	xor	a4,a5,a4
    1c5c:	01767633          	and	a2,a2,s7
    1c60:	00c6c6b3          	xor	a3,a3,a2
    *(u64*)(c + 8) = U64BIG(tmp1);
    1c64:	00871513          	slli	a0,a4,0x8
    from_bit_interleaving(tmp1, x1);
    1c68:	00161613          	slli	a2,a2,0x1
    1c6c:	00d646b3          	xor	a3,a2,a3
    *(u64*)(c + 8) = U64BIG(tmp1);
    1c70:	00a5f533          	and	a0,a1,a0
    1c74:	01871793          	slli	a5,a4,0x18
    1c78:	00a7e7b3          	or	a5,a5,a0
    1c7c:	01869f93          	slli	t6,a3,0x18
    1c80:	00875513          	srli	a0,a4,0x8
    1c84:	01f56fb3          	or	t6,a0,t6
    1c88:	013ff533          	and	a0,t6,s3
    1c8c:	00a7e7b3          	or	a5,a5,a0
    1c90:	01875713          	srli	a4,a4,0x18
    1c94:	00869513          	slli	a0,a3,0x8
    1c98:	01ff7f33          	and	t5,t5,t6
    1c9c:	0186d613          	srli	a2,a3,0x18
    1ca0:	00a76533          	or	a0,a4,a0
    1ca4:	01e66f33          	or	t5,a2,t5
    1ca8:	00a5f5b3          	and	a1,a1,a0
    1cac:	0086d693          	srli	a3,a3,0x8
    1cb0:	0ff57713          	andi	a4,a0,255
    1cb4:	00bf65b3          	or	a1,t5,a1
    1cb8:	0136f6b3          	and	a3,a3,s3
    1cbc:	00e7e7b3          	or	a5,a5,a4
    1cc0:	00d5e6b3          	or	a3,a1,a3
    1cc4:	00d82423          	sw	a3,8(a6)
    1cc8:	00f82623          	sw	a5,12(a6)
    P8();
    1ccc:	03810693          	addi	a3,sp,56
    1cd0:	04c10613          	addi	a2,sp,76
    1cd4:	00c00593          	li	a1,12
    1cd8:	00600513          	li	a0,6
    1cdc:	02612223          	sw	t1,36(sp)
    1ce0:	03c12023          	sw	t3,32(sp)
    to_bit_interleaving(t1, U64BIG(*(u64*)(m + 8)));
    1ce4:	01112a23          	sw	a7,20(sp)
    *(u64*)(c + 8) = U64BIG(tmp1);
    1ce8:	01012823          	sw	a6,16(sp)
    P8();
    1cec:	18c000ef          	jal	ra,1e78 <ROUND>
    1cf0:	03810693          	addi	a3,sp,56
    1cf4:	04c10613          	addi	a2,sp,76
    1cf8:	00c00593          	li	a1,12
    1cfc:	00300513          	li	a0,3
    1d00:	178000ef          	jal	ra,1e78 <ROUND>
    1d04:	03810693          	addi	a3,sp,56
    1d08:	04c10613          	addi	a2,sp,76
    1d0c:	00900593          	li	a1,9
    1d10:	00600513          	li	a0,6
    1d14:	164000ef          	jal	ra,1e78 <ROUND>
    1d18:	03810693          	addi	a3,sp,56
    1d1c:	04c10613          	addi	a2,sp,76
    1d20:	00900593          	li	a1,9
    1d24:	00300513          	li	a0,3
    1d28:	150000ef          	jal	ra,1e78 <ROUND>
    1d2c:	03810693          	addi	a3,sp,56
    1d30:	04c10613          	addi	a2,sp,76
    1d34:	00600593          	li	a1,6
    1d38:	00c00513          	li	a0,12
    1d3c:	13c000ef          	jal	ra,1e78 <ROUND>
    1d40:	03810693          	addi	a3,sp,56
    1d44:	04c10613          	addi	a2,sp,76
    1d48:	00600593          	li	a1,6
    1d4c:	00900513          	li	a0,9
    1d50:	128000ef          	jal	ra,1e78 <ROUND>
    1d54:	03810693          	addi	a3,sp,56
    1d58:	04c10613          	addi	a2,sp,76
    1d5c:	00300593          	li	a1,3
    1d60:	00c00513          	li	a0,12
    1d64:	114000ef          	jal	ra,1e78 <ROUND>
    1d68:	03810693          	addi	a3,sp,56
    1d6c:	04c10613          	addi	a2,sp,76
    1d70:	00300593          	li	a1,3
    1d74:	00900513          	li	a0,9
    1d78:	100000ef          	jal	ra,1e78 <ROUND>
    mlen -= RATE;
    1d7c:	02012e03          	lw	t3,32(sp)
    1d80:	02412303          	lw	t1,36(sp)
    m += RATE;
    1d84:	01412883          	lw	a7,20(sp)
    c += RATE;
    1d88:	01012803          	lw	a6,16(sp)
    mlen -= RATE;
    1d8c:	ff0e0793          	addi	a5,t3,-16
    1d90:	01c7b733          	sltu	a4,a5,t3
    1d94:	fff30313          	addi	t1,t1,-1
    1d98:	00078e13          	mv	t3,a5
    1d9c:	00670333          	add	t1,a4,t1
    m += RATE;
    1da0:	01088893          	addi	a7,a7,16
    c += RATE;
    1da4:	01080813          	addi	a6,a6,16
    1da8:	00010eb7          	lui	t4,0x10
    1dac:	a11fe06f          	j	7bc <crypto_aead_encrypt+0x730>
      tmp0 ^= INS_BYTE64(*m, i);
    1db0:	01012783          	lw	a5,16(sp)
    1db4:	00f98633          	add	a2,s3,a5
    1db8:	01c12783          	lw	a5,28(sp)
    1dbc:	00c78633          	add	a2,a5,a2
    if (i < 8)
    1dc0:	00700793          	li	a5,7
      tmp0 ^= INS_BYTE64(*m, i);
    1dc4:	00064503          	lbu	a0,0(a2)
    if (i < 8)
    1dc8:	0337e463          	bltu	a5,s3,1df0 <crypto_aead_encrypt+0x1d64>
      tmp0 ^= INS_BYTE64(*m, i);
    1dcc:	41300633          	neg	a2,s3
    1dd0:	00361613          	slli	a2,a2,0x3
    1dd4:	03860613          	addi	a2,a2,56
    1dd8:	00000593          	li	a1,0
    1ddc:	2ca020ef          	jal	ra,40a6 <__ashldi3>
    1de0:	00aa4a33          	xor	s4,s4,a0
    1de4:	00bd4d33          	xor	s10,s10,a1
  for (i = 0; i < mlen; ++i, ++m)
    1de8:	00198993          	addi	s3,s3,1
    1dec:	a51fe06f          	j	83c <crypto_aead_encrypt+0x7b0>
      tmp1 ^= INS_BYTE64(*m, i % 8);
    1df0:	fff9c613          	not	a2,s3
    1df4:	00767613          	andi	a2,a2,7
    1df8:	00361613          	slli	a2,a2,0x3
    1dfc:	00000593          	li	a1,0
    1e00:	2a6020ef          	jal	ra,40a6 <__ashldi3>
    1e04:	00abcbb3          	xor	s7,s7,a0
    1e08:	00bdcdb3          	xor	s11,s11,a1
    1e0c:	fddff06f          	j	1de8 <crypto_aead_encrypt+0x1d5c>
    tmp1 ^= INS_BYTE64(0x80, mlen % 8);
    1e10:	fff94613          	not	a2,s2
    1e14:	00767613          	andi	a2,a2,7
    1e18:	00361613          	slli	a2,a2,0x3
    1e1c:	08000513          	li	a0,128
    1e20:	00000593          	li	a1,0
    1e24:	282020ef          	jal	ra,40a6 <__ashldi3>
    1e28:	00abcbb3          	xor	s7,s7,a0
    1e2c:	00bdcdb3          	xor	s11,s11,a1
    1e30:	a49fe06f          	j	878 <crypto_aead_encrypt+0x7ec>
    if (i < 8)
    1e34:	03ace663          	bltu	s9,s10,1e60 <crypto_aead_encrypt+0x1dd4>
      *c = EXT_BYTE64(tmp0, i);
    1e38:	41a00633          	neg	a2,s10
    1e3c:	00361613          	slli	a2,a2,0x3
    1e40:	03860613          	addi	a2,a2,56
    1e44:	000c0513          	mv	a0,s8
    1e48:	000a0593          	mv	a1,s4
      *c = EXT_BYTE64(tmp1, i % 8);
    1e4c:	230020ef          	jal	ra,407c <__lshrdi3>
    1e50:	0ff57513          	andi	a0,a0,255
    1e54:	00a98023          	sb	a0,0(s3)
  for (i = 0; i < mlen; ++i, ++c)
    1e58:	001d0d13          	addi	s10,s10,1
    1e5c:	dcdfe06f          	j	c28 <crypto_aead_encrypt+0xb9c>
      *c = EXT_BYTE64(tmp1, i % 8);
    1e60:	fffd4613          	not	a2,s10
    1e64:	00767613          	andi	a2,a2,7
    1e68:	00361613          	slli	a2,a2,0x3
    1e6c:	000b0513          	mv	a0,s6
    1e70:	000a8593          	mv	a1,s5
    1e74:	fd9ff06f          	j	1e4c <crypto_aead_encrypt+0x1dc0>

00001e78 <ROUND>:
void ROUND(u32 C_e, u32 C_o, u32* s_e, u32* s_o) 
{

  u32_2 t0, t1, t2, t3, t4;
  /* round constant */ 
  s_e[2] ^= C_e;                      s_o[2] ^= C_o; 
    1e78:	00862703          	lw	a4,8(a2)
{
    1e7c:	ff010113          	addi	sp,sp,-16
    1e80:	00812623          	sw	s0,12(sp)
  s_e[2] ^= C_e;                      s_o[2] ^= C_o; 
    1e84:	00a74733          	xor	a4,a4,a0
    1e88:	00e62423          	sw	a4,8(a2)
    1e8c:	0086a783          	lw	a5,8(a3)
    1e90:	00b7c7b3          	xor	a5,a5,a1
    1e94:	00f6a423          	sw	a5,8(a3)
  /* s-box layer */ 
  s_e[0] ^= s_e[4];                  s_o[0] ^= s_o[4];
    1e98:	00062783          	lw	a5,0(a2)
    1e9c:	01062703          	lw	a4,16(a2)
    1ea0:	00e7c7b3          	xor	a5,a5,a4
    1ea4:	00f62023          	sw	a5,0(a2)
    1ea8:	0106a703          	lw	a4,16(a3)
    1eac:	0006a783          	lw	a5,0(a3)
    1eb0:	00e7c7b3          	xor	a5,a5,a4
    1eb4:	00f6a023          	sw	a5,0(a3)
  s_e[4] ^= s_e[3];                  s_o[4] ^= s_o[3];
    1eb8:	01062783          	lw	a5,16(a2)
    1ebc:	00c62703          	lw	a4,12(a2)
    1ec0:	00e7c7b3          	xor	a5,a5,a4
    1ec4:	00f62823          	sw	a5,16(a2)
    1ec8:	0106a783          	lw	a5,16(a3)
    1ecc:	00c6a703          	lw	a4,12(a3)
    1ed0:	00e7c7b3          	xor	a5,a5,a4
    1ed4:	00f6a823          	sw	a5,16(a3)
  s_e[2] ^= s_e[1];                  s_o[2] ^= s_o[1];
    1ed8:	00862783          	lw	a5,8(a2)
    1edc:	00462703          	lw	a4,4(a2)
    1ee0:	00e7c7b3          	xor	a5,a5,a4
    1ee4:	00f62423          	sw	a5,8(a2)
    1ee8:	0046af03          	lw	t5,4(a3)
    1eec:	0086a783          	lw	a5,8(a3)
  t0.e = s_e[0];                     t0.o = s_o[0];
    1ef0:	0006a303          	lw	t1,0(a3)
  t4.e = s_e[4];                     t4.o = s_o[4];
  t3.e = s_e[3];                     t3.o = s_o[3];
    1ef4:	00c6a883          	lw	a7,12(a3)
  s_e[2] ^= s_e[1];                  s_o[2] ^= s_o[1];
    1ef8:	00ff47b3          	xor	a5,t5,a5
    1efc:	00f6a423          	sw	a5,8(a3)
  t1.e = s_e[1];                     t1.o = s_o[1];
    1f00:	00462f83          	lw	t6,4(a2)
  t2.e = s_e[2];                     t2.o = s_o[2];
    1f04:	00862503          	lw	a0,8(a2)
  t0.e = s_e[0];                     t0.o = s_o[0];
    1f08:	00062e83          	lw	t4,0(a2)
  s_e[0] = t0.e ^ (~t1.e & t2.e);    s_o[0] = t0.o ^ (~t1.o & t2.o);
    1f0c:	ffffc813          	not	a6,t6
    1f10:	00a87833          	and	a6,a6,a0
    1f14:	01d84833          	xor	a6,a6,t4
  t4.e = s_e[4];                     t4.o = s_o[4];
    1f18:	0106a703          	lw	a4,16(a3)
  t3.e = s_e[3];                     t3.o = s_o[3];
    1f1c:	00c62e03          	lw	t3,12(a2)
  s_e[0] = t0.e ^ (~t1.e & t2.e);    s_o[0] = t0.o ^ (~t1.o & t2.o);
    1f20:	01062023          	sw	a6,0(a2)
    1f24:	ffff4813          	not	a6,t5
  t4.e = s_e[4];                     t4.o = s_o[4];
    1f28:	01062583          	lw	a1,16(a2)
  s_e[0] = t0.e ^ (~t1.e & t2.e);    s_o[0] = t0.o ^ (~t1.o & t2.o);
    1f2c:	00f87833          	and	a6,a6,a5
    1f30:	00684833          	xor	a6,a6,t1
    1f34:	0106a023          	sw	a6,0(a3)
  s_e[2] = t2.e ^ (~t3.e & t4.e);    s_o[2] = t2.o ^ (~t3.o & t4.o);
    1f38:	fffe4813          	not	a6,t3
    1f3c:	00b87833          	and	a6,a6,a1
    1f40:	00a84833          	xor	a6,a6,a0
    1f44:	01062423          	sw	a6,8(a2)
    1f48:	fff8c813          	not	a6,a7
    1f4c:	00e87833          	and	a6,a6,a4
    1f50:	00f84833          	xor	a6,a6,a5
    1f54:	0106a423          	sw	a6,8(a3)
  s_e[4] = t4.e ^ (~t0.e & t1.e);    s_o[4] = t4.o ^ (~t0.o & t1.o);
    1f58:	fffec813          	not	a6,t4
    1f5c:	01f87833          	and	a6,a6,t6
    1f60:	00b84833          	xor	a6,a6,a1
    1f64:	01062823          	sw	a6,16(a2)
    1f68:	fff34813          	not	a6,t1
    1f6c:	01e87833          	and	a6,a6,t5
  s_e[1] = t1.e ^ (~t2.e & t3.e);    s_o[1] = t1.o ^ (~t2.o & t3.o);
    1f70:	fff54513          	not	a0,a0
  s_e[4] = t4.e ^ (~t0.e & t1.e);    s_o[4] = t4.o ^ (~t0.o & t1.o);
    1f74:	00e84833          	xor	a6,a6,a4
  s_e[1] = t1.e ^ (~t2.e & t3.e);    s_o[1] = t1.o ^ (~t2.o & t3.o);
    1f78:	01c57533          	and	a0,a0,t3
    1f7c:	fff7c793          	not	a5,a5
  s_e[4] = t4.e ^ (~t0.e & t1.e);    s_o[4] = t4.o ^ (~t0.o & t1.o);
    1f80:	0106a823          	sw	a6,16(a3)
  s_e[1] = t1.e ^ (~t2.e & t3.e);    s_o[1] = t1.o ^ (~t2.o & t3.o);
    1f84:	01f54533          	xor	a0,a0,t6
    1f88:	0117f7b3          	and	a5,a5,a7
  s_e[3] = t3.e ^ (~t4.e & t0.e);    s_o[3] = t3.o ^ (~t4.o & t0.o);
    1f8c:	fff5c593          	not	a1,a1
  s_e[1] = t1.e ^ (~t2.e & t3.e);    s_o[1] = t1.o ^ (~t2.o & t3.o);
    1f90:	00a62223          	sw	a0,4(a2)
    1f94:	01e7c7b3          	xor	a5,a5,t5
  s_e[3] = t3.e ^ (~t4.e & t0.e);    s_o[3] = t3.o ^ (~t4.o & t0.o);
    1f98:	01d5f5b3          	and	a1,a1,t4
    1f9c:	fff74713          	not	a4,a4
  s_e[1] = t1.e ^ (~t2.e & t3.e);    s_o[1] = t1.o ^ (~t2.o & t3.o);
    1fa0:	00f6a223          	sw	a5,4(a3)
  s_e[3] = t3.e ^ (~t4.e & t0.e);    s_o[3] = t3.o ^ (~t4.o & t0.o);
    1fa4:	01c5c5b3          	xor	a1,a1,t3
    1fa8:	00677733          	and	a4,a4,t1
    1fac:	00b62623          	sw	a1,12(a2)
    1fb0:	01174733          	xor	a4,a4,a7
    1fb4:	00e6a623          	sw	a4,12(a3)
  s_e[1] ^= s_e[0];                  s_o[1] ^= s_o[0]; 
    1fb8:	00062703          	lw	a4,0(a2)
    1fbc:	00462783          	lw	a5,4(a2)
    1fc0:	00e7c7b3          	xor	a5,a5,a4
    1fc4:	00f62223          	sw	a5,4(a2)
    1fc8:	0006a703          	lw	a4,0(a3)
    1fcc:	0046a783          	lw	a5,4(a3)
    1fd0:	00e7c7b3          	xor	a5,a5,a4
    1fd4:	00f6a223          	sw	a5,4(a3)
  s_e[3] ^= s_e[2];                  s_o[3] ^= s_o[2]; 
    1fd8:	00c62783          	lw	a5,12(a2)
    1fdc:	00862703          	lw	a4,8(a2)
    1fe0:	00e7c7b3          	xor	a5,a5,a4
    1fe4:	00f62623          	sw	a5,12(a2)
    1fe8:	00c6a783          	lw	a5,12(a3)
    1fec:	0086a703          	lw	a4,8(a3)
    1ff0:	00e7c7b3          	xor	a5,a5,a4
    1ff4:	00f6a623          	sw	a5,12(a3)
  s_e[0] ^= s_e[4];                  s_o[0] ^= s_o[4];
    1ff8:	00062783          	lw	a5,0(a2)
    1ffc:	01062703          	lw	a4,16(a2)
    2000:	00e7c7b3          	xor	a5,a5,a4
    2004:	00f62023          	sw	a5,0(a2)
    2008:	0106ae03          	lw	t3,16(a3)
    200c:	0006a583          	lw	a1,0(a3)
  /*linear layer */ 
  t0.e  = s_e[0] ^ ROTR32(s_o[0], 4);   t0.o  = s_o[0] ^ ROTR32(s_e[0], 5); 
  t1.e  = s_e[1] ^ ROTR32(s_e[1], 11);  t1.o  = s_o[1] ^ ROTR32(s_o[1], 11); 
    2010:	0046a403          	lw	s0,4(a3)
  t2.e  = s_e[2] ^ ROTR32(s_o[2], 2);   t2.o  = s_o[2] ^ ROTR32(s_e[2], 3); 
    2014:	0086a283          	lw	t0,8(a3)
  s_e[0] ^= s_e[4];                  s_o[0] ^= s_o[4];
    2018:	00be45b3          	xor	a1,t3,a1
    201c:	00b6a023          	sw	a1,0(a3)
  t0.e  = s_e[0] ^ ROTR32(s_o[0], 4);   t0.o  = s_o[0] ^ ROTR32(s_e[0], 5); 
    2020:	00062383          	lw	t2,0(a2)
  t1.e  = s_e[1] ^ ROTR32(s_e[1], 11);  t1.o  = s_o[1] ^ ROTR32(s_o[1], 11); 
    2024:	00462503          	lw	a0,4(a2)
  t2.e  = s_e[2] ^ ROTR32(s_o[2], 2);   t2.o  = s_o[2] ^ ROTR32(s_e[2], 3); 
    2028:	00862f83          	lw	t6,8(a2)
  t0.e  = s_e[0] ^ ROTR32(s_o[0], 4);   t0.o  = s_o[0] ^ ROTR32(s_e[0], 5); 
    202c:	01b39793          	slli	a5,t2,0x1b
    2030:	0053df13          	srli	t5,t2,0x5
    2034:	00ff6f33          	or	t5,t5,a5
    2038:	00bf4f33          	xor	t5,t5,a1
  t3.e  = s_e[3] ^ ROTR32(s_o[3], 3);   t3.o  = s_o[3] ^ ROTR32(s_e[3], 4); 
  t4.e  = s_e[4] ^ ROTR32(s_e[4], 17);  t4.o  = s_o[4] ^ ROTR32(s_o[4], 17); 
  s_e[0] ^=  ROTR32(t0.o, 9);           s_o[0] ^= ROTR32(t0.e, 10); 
    203c:	009f5813          	srli	a6,t5,0x9
  t0.e  = s_e[0] ^ ROTR32(s_o[0], 4);   t0.o  = s_o[0] ^ ROTR32(s_e[0], 5); 
    2040:	0045d793          	srli	a5,a1,0x4
  s_e[0] ^=  ROTR32(t0.o, 9);           s_o[0] ^= ROTR32(t0.e, 10); 
    2044:	017f1f13          	slli	t5,t5,0x17
  t0.e  = s_e[0] ^ ROTR32(s_o[0], 4);   t0.o  = s_o[0] ^ ROTR32(s_e[0], 5); 
    2048:	01c59593          	slli	a1,a1,0x1c
  s_e[0] ^=  ROTR32(t0.o, 9);           s_o[0] ^= ROTR32(t0.e, 10); 
    204c:	01e86f33          	or	t5,a6,t5
  t0.e  = s_e[0] ^ ROTR32(s_o[0], 4);   t0.o  = s_o[0] ^ ROTR32(s_e[0], 5); 
    2050:	00b7e7b3          	or	a5,a5,a1
    2054:	0077c7b3          	xor	a5,a5,t2
  s_e[0] ^=  ROTR32(t0.o, 9);           s_o[0] ^= ROTR32(t0.e, 10); 
    2058:	007f4f33          	xor	t5,t5,t2
  t3.e  = s_e[3] ^ ROTR32(s_o[3], 3);   t3.o  = s_o[3] ^ ROTR32(s_e[3], 4); 
    205c:	00c62e83          	lw	t4,12(a2)
  s_e[0] ^=  ROTR32(t0.o, 9);           s_o[0] ^= ROTR32(t0.e, 10); 
    2060:	00a7d593          	srli	a1,a5,0xa
  t3.e  = s_e[3] ^ ROTR32(s_o[3], 3);   t3.o  = s_o[3] ^ ROTR32(s_e[3], 4); 
    2064:	00c6a703          	lw	a4,12(a3)
  s_e[0] ^=  ROTR32(t0.o, 9);           s_o[0] ^= ROTR32(t0.e, 10); 
    2068:	01679793          	slli	a5,a5,0x16
    206c:	01e62023          	sw	t5,0(a2)
    2070:	00f5e5b3          	or	a1,a1,a5
    2074:	0006a783          	lw	a5,0(a3)
  t4.e  = s_e[4] ^ ROTR32(s_e[4], 17);  t4.o  = s_o[4] ^ ROTR32(s_o[4], 17); 
    2078:	01062303          	lw	t1,16(a2)
  t1.e  = s_e[1] ^ ROTR32(s_e[1], 11);  t1.o  = s_o[1] ^ ROTR32(s_o[1], 11); 
    207c:	00b45893          	srli	a7,s0,0xb
  s_e[0] ^=  ROTR32(t0.o, 9);           s_o[0] ^= ROTR32(t0.e, 10); 
    2080:	00b7c7b3          	xor	a5,a5,a1
    2084:	00f6a023          	sw	a5,0(a3)
  t1.e  = s_e[1] ^ ROTR32(s_e[1], 11);  t1.o  = s_o[1] ^ ROTR32(s_o[1], 11); 
    2088:	01541793          	slli	a5,s0,0x15
    208c:	00f8e8b3          	or	a7,a7,a5
    2090:	0088c8b3          	xor	a7,a7,s0
  s_e[1] ^=  ROTR32(t1.o, 19);          s_o[1] ^= ROTR32(t1.e, 20); 
    2094:	00d89793          	slli	a5,a7,0xd
    2098:	0138d893          	srli	a7,a7,0x13
    209c:	0117e7b3          	or	a5,a5,a7
    20a0:	00462883          	lw	a7,4(a2)
  t1.e  = s_e[1] ^ ROTR32(s_e[1], 11);  t1.o  = s_o[1] ^ ROTR32(s_o[1], 11); 
    20a4:	00b55813          	srli	a6,a0,0xb
  t2.e  = s_e[2] ^ ROTR32(s_o[2], 2);   t2.o  = s_o[2] ^ ROTR32(s_e[2], 3); 
    20a8:	003fd593          	srli	a1,t6,0x3
  s_e[1] ^=  ROTR32(t1.o, 19);          s_o[1] ^= ROTR32(t1.e, 20); 
    20ac:	00f8c8b3          	xor	a7,a7,a5
  t1.e  = s_e[1] ^ ROTR32(s_e[1], 11);  t1.o  = s_o[1] ^ ROTR32(s_o[1], 11); 
    20b0:	01551793          	slli	a5,a0,0x15
    20b4:	00f86833          	or	a6,a6,a5
    20b8:	00a84833          	xor	a6,a6,a0
  s_e[1] ^=  ROTR32(t1.o, 19);          s_o[1] ^= ROTR32(t1.e, 20); 
    20bc:	01162223          	sw	a7,4(a2)
    20c0:	00c81793          	slli	a5,a6,0xc
    20c4:	01485813          	srli	a6,a6,0x14
    20c8:	0107e7b3          	or	a5,a5,a6
    20cc:	0046a803          	lw	a6,4(a3)
  t2.e  = s_e[2] ^ ROTR32(s_o[2], 2);   t2.o  = s_o[2] ^ ROTR32(s_e[2], 3); 
    20d0:	01df9513          	slli	a0,t6,0x1d
    20d4:	00a5e5b3          	or	a1,a1,a0
  s_e[1] ^=  ROTR32(t1.o, 19);          s_o[1] ^= ROTR32(t1.e, 20); 
    20d8:	00f84833          	xor	a6,a6,a5
    20dc:	0106a223          	sw	a6,4(a3)
  s_e[2] ^= t2.o;                                    s_o[2] ^= ROTR32(t2.e, 1); 
    20e0:	00862783          	lw	a5,8(a2)
  t2.e  = s_e[2] ^ ROTR32(s_o[2], 2);   t2.o  = s_o[2] ^ ROTR32(s_e[2], 3); 
    20e4:	0022d513          	srli	a0,t0,0x2
  s_e[3] ^= ROTR32(t3.e, 5);            s_o[3] ^= ROTR32(t3.o, 5); 
  s_e[4] ^= ROTR32(t4.o, 3);            s_o[4] ^= ROTR32(t4.e, 4); 
  s_e[2] = ~s_e[2];                                  s_o[2] = ~s_o[2]; 
}
    20e8:	00c12403          	lw	s0,12(sp)
  s_e[2] ^= t2.o;                                    s_o[2] ^= ROTR32(t2.e, 1); 
    20ec:	00f2c7b3          	xor	a5,t0,a5
  t2.e  = s_e[2] ^ ROTR32(s_o[2], 2);   t2.o  = s_o[2] ^ ROTR32(s_e[2], 3); 
    20f0:	01e29293          	slli	t0,t0,0x1e
    20f4:	00556533          	or	a0,a0,t0
  s_e[2] ^= t2.o;                                    s_o[2] ^= ROTR32(t2.e, 1); 
    20f8:	00b7c7b3          	xor	a5,a5,a1
  t2.e  = s_e[2] ^ ROTR32(s_o[2], 2);   t2.o  = s_o[2] ^ ROTR32(s_e[2], 3); 
    20fc:	01f54533          	xor	a0,a0,t6
  s_e[2] ^= t2.o;                                    s_o[2] ^= ROTR32(t2.e, 1); 
    2100:	00f62423          	sw	a5,8(a2)
    2104:	00155793          	srli	a5,a0,0x1
    2108:	01f51513          	slli	a0,a0,0x1f
    210c:	00a7e7b3          	or	a5,a5,a0
    2110:	0086a503          	lw	a0,8(a3)
  t3.e  = s_e[3] ^ ROTR32(s_o[3], 3);   t3.o  = s_o[3] ^ ROTR32(s_e[3], 4); 
    2114:	004ed593          	srli	a1,t4,0x4
  s_e[2] ^= t2.o;                                    s_o[2] ^= ROTR32(t2.e, 1); 
    2118:	00f54533          	xor	a0,a0,a5
    211c:	00a6a423          	sw	a0,8(a3)
  t3.e  = s_e[3] ^ ROTR32(s_o[3], 3);   t3.o  = s_o[3] ^ ROTR32(s_e[3], 4); 
    2120:	01d71793          	slli	a5,a4,0x1d
    2124:	00375513          	srli	a0,a4,0x3
    2128:	00f56533          	or	a0,a0,a5
    212c:	01d54533          	xor	a0,a0,t4
  s_e[3] ^= ROTR32(t3.e, 5);            s_o[3] ^= ROTR32(t3.o, 5); 
    2130:	00555793          	srli	a5,a0,0x5
    2134:	01b51513          	slli	a0,a0,0x1b
    2138:	00a7e7b3          	or	a5,a5,a0
    213c:	00c62503          	lw	a0,12(a2)
  t3.e  = s_e[3] ^ ROTR32(s_o[3], 3);   t3.o  = s_o[3] ^ ROTR32(s_e[3], 4); 
    2140:	01ce9e93          	slli	t4,t4,0x1c
    2144:	01d5e5b3          	or	a1,a1,t4
    2148:	00e5c5b3          	xor	a1,a1,a4
  s_e[3] ^= ROTR32(t3.e, 5);            s_o[3] ^= ROTR32(t3.o, 5); 
    214c:	00f54533          	xor	a0,a0,a5
    2150:	00a62623          	sw	a0,12(a2)
    2154:	0055d793          	srli	a5,a1,0x5
    2158:	01b59593          	slli	a1,a1,0x1b
    215c:	00b7e7b3          	or	a5,a5,a1
    2160:	00c6a583          	lw	a1,12(a3)
  t4.e  = s_e[4] ^ ROTR32(s_e[4], 17);  t4.o  = s_o[4] ^ ROTR32(s_o[4], 17); 
    2164:	00fe1713          	slli	a4,t3,0xf
  s_e[3] ^= ROTR32(t3.e, 5);            s_o[3] ^= ROTR32(t3.o, 5); 
    2168:	00f5c5b3          	xor	a1,a1,a5
  t4.e  = s_e[4] ^ ROTR32(s_e[4], 17);  t4.o  = s_o[4] ^ ROTR32(s_o[4], 17); 
    216c:	011e5793          	srli	a5,t3,0x11
    2170:	00f76733          	or	a4,a4,a5
    2174:	01c74733          	xor	a4,a4,t3
  s_e[3] ^= ROTR32(t3.e, 5);            s_o[3] ^= ROTR32(t3.o, 5); 
    2178:	00b6a623          	sw	a1,12(a3)
  s_e[4] ^= ROTR32(t4.o, 3);            s_o[4] ^= ROTR32(t4.e, 4); 
    217c:	00375793          	srli	a5,a4,0x3
    2180:	01d71713          	slli	a4,a4,0x1d
    2184:	00e7e7b3          	or	a5,a5,a4
    2188:	01062703          	lw	a4,16(a2)
    218c:	00f74733          	xor	a4,a4,a5
    2190:	00e62823          	sw	a4,16(a2)
  t4.e  = s_e[4] ^ ROTR32(s_e[4], 17);  t4.o  = s_o[4] ^ ROTR32(s_o[4], 17); 
    2194:	00f31793          	slli	a5,t1,0xf
    2198:	01135713          	srli	a4,t1,0x11
    219c:	00e7e7b3          	or	a5,a5,a4
    21a0:	0067c7b3          	xor	a5,a5,t1
  s_e[4] ^= ROTR32(t4.o, 3);            s_o[4] ^= ROTR32(t4.e, 4); 
    21a4:	0047d713          	srli	a4,a5,0x4
    21a8:	01c79793          	slli	a5,a5,0x1c
    21ac:	00f76733          	or	a4,a4,a5
    21b0:	0106a783          	lw	a5,16(a3)
    21b4:	00e7c7b3          	xor	a5,a5,a4
    21b8:	00f6a823          	sw	a5,16(a3)
  s_e[2] = ~s_e[2];                                  s_o[2] = ~s_o[2]; 
    21bc:	00862783          	lw	a5,8(a2)
    21c0:	fff7c793          	not	a5,a5
    21c4:	00f62423          	sw	a5,8(a2)
    21c8:	0086a783          	lw	a5,8(a3)
    21cc:	fff7c793          	not	a5,a5
    21d0:	00f6a423          	sw	a5,8(a3)
}
    21d4:	01010113          	addi	sp,sp,16
    21d8:	00008067          	ret

000021dc <crypto_aead_decrypt>:

int crypto_aead_decrypt(unsigned char* m, unsigned long long* mlen,
                        unsigned char* nsec, const unsigned char* c,
                        unsigned long long clen, const unsigned char* ad,
                        unsigned long long adlen, const unsigned char* npub,
                        const unsigned char* k) {
    21dc:	f4010113          	addi	sp,sp,-192
    21e0:	0a912223          	sw	s1,164(sp)
    21e4:	0b212023          	sw	s2,160(sp)
    21e8:	09512a23          	sw	s5,148(sp)
    21ec:	07b12e23          	sw	s11,124(sp)
    21f0:	0a112623          	sw	ra,172(sp)
    21f4:	0a812423          	sw	s0,168(sp)
    21f8:	09312e23          	sw	s3,156(sp)
    21fc:	09412c23          	sw	s4,152(sp)
    2200:	09612823          	sw	s6,144(sp)
    2204:	09712623          	sw	s7,140(sp)
    2208:	09812423          	sw	s8,136(sp)
    220c:	09912223          	sw	s9,132(sp)
    2210:	09a12023          	sw	s10,128(sp)
    2214:	02a12423          	sw	a0,40(sp)
    2218:	00b12e23          	sw	a1,28(sp)
    221c:	02d12623          	sw	a3,44(sp)
    2220:	03012823          	sw	a6,48(sp)
    2224:	0b112e23          	sw	a7,188(sp)
    2228:	0c012a83          	lw	s5,192(sp)
    222c:	0c412e03          	lw	t3,196(sp)
    2230:	0c812603          	lw	a2,200(sp)
    2234:	00070493          	mv	s1,a4
    2238:	00078913          	mv	s2,a5
    223c:	00088d93          	mv	s11,a7
  if (clen < CRYPTO_ABYTES) {
    2240:	06079063          	bnez	a5,22a0 <crypto_aead_decrypt+0xc4>
    2244:	00f00793          	li	a5,15
    2248:	04e7ec63          	bltu	a5,a4,22a0 <crypto_aead_decrypt+0xc4>
    *mlen = 0;
    224c:	01c12703          	lw	a4,28(sp)
    2250:	00000793          	li	a5,0
    2254:	00000813          	li	a6,0
    2258:	00f72023          	sw	a5,0(a4)
    225c:	01072223          	sw	a6,4(a4)
    return -1;
    2260:	fff00513          	li	a0,-1
    *mlen = 0;
    return -1;
  }

  return 0;
}
    2264:	0ac12083          	lw	ra,172(sp)
    2268:	0a812403          	lw	s0,168(sp)
    226c:	0a412483          	lw	s1,164(sp)
    2270:	0a012903          	lw	s2,160(sp)
    2274:	09c12983          	lw	s3,156(sp)
    2278:	09812a03          	lw	s4,152(sp)
    227c:	09412a83          	lw	s5,148(sp)
    2280:	09012b03          	lw	s6,144(sp)
    2284:	08c12b83          	lw	s7,140(sp)
    2288:	08812c03          	lw	s8,136(sp)
    228c:	08412c83          	lw	s9,132(sp)
    2290:	08012d03          	lw	s10,128(sp)
    2294:	07c12d83          	lw	s11,124(sp)
    2298:	0c010113          	addi	sp,sp,192
    229c:	00008067          	ret
  *mlen = clen - CRYPTO_ABYTES;
    22a0:	ff048413          	addi	s0,s1,-16
    22a4:	fff90793          	addi	a5,s2,-1
    22a8:	00943a33          	sltu	s4,s0,s1
    22ac:	00fa0a33          	add	s4,s4,a5
    22b0:	01c12783          	lw	a5,28(sp)
  to_bit_interleaving(K0, U64BIG(*(u64*)k));
    22b4:	00ff0837          	lui	a6,0xff0
    22b8:	222229b7          	lui	s3,0x22222
  *mlen = clen - CRYPTO_ABYTES;
    22bc:	0087a023          	sw	s0,0(a5)
    22c0:	0147a223          	sw	s4,4(a5)
  to_bit_interleaving(K0, U64BIG(*(u64*)k));
    22c4:	00062683          	lw	a3,0(a2)
    22c8:	00462703          	lw	a4,4(a2)
    22cc:	22298993          	addi	s3,s3,546 # 22222222 <_stack_start+0x2220c01a>
    22d0:	0086d793          	srli	a5,a3,0x8
    22d4:	01871593          	slli	a1,a4,0x18
    22d8:	00f5e7b3          	or	a5,a1,a5
    22dc:	00871513          	slli	a0,a4,0x8
    22e0:	0186d593          	srli	a1,a3,0x18
    22e4:	00b565b3          	or	a1,a0,a1
    22e8:	00869f13          	slli	t5,a3,0x8
    22ec:	00010537          	lui	a0,0x10
    22f0:	f0050d13          	addi	s10,a0,-256 # ff00 <_bss_end+0xbc90>
    22f4:	01e87f33          	and	t5,a6,t5
    22f8:	01869693          	slli	a3,a3,0x18
    22fc:	00df6f33          	or	t5,t5,a3
    2300:	01a7f6b3          	and	a3,a5,s10
    2304:	00df6f33          	or	t5,t5,a3
    2308:	0ff5f693          	andi	a3,a1,255
    230c:	00df6f33          	or	t5,t5,a3
    2310:	ff0006b7          	lui	a3,0xff000
    2314:	00b875b3          	and	a1,a6,a1
    2318:	00f6f7b3          	and	a5,a3,a5
    231c:	00875893          	srli	a7,a4,0x8
    2320:	00b7e7b3          	or	a5,a5,a1
    2324:	01875713          	srli	a4,a4,0x18
    2328:	00e7e7b3          	or	a5,a5,a4
    232c:	01a8f8b3          	and	a7,a7,s10
    2330:	0117e7b3          	or	a5,a5,a7
    2334:	0017d593          	srli	a1,a5,0x1
    2338:	00f5c5b3          	xor	a1,a1,a5
    233c:	0135f5b3          	and	a1,a1,s3
    2340:	00b7c7b3          	xor	a5,a5,a1
    2344:	00159593          	slli	a1,a1,0x1
    2348:	00f5c5b3          	xor	a1,a1,a5
    234c:	0025d713          	srli	a4,a1,0x2
    2350:	0c0c17b7          	lui	a5,0xc0c1
    2354:	c0c78b13          	addi	s6,a5,-1012 # c0c0c0c <_stack_start+0xc0aaa04>
    2358:	00b74733          	xor	a4,a4,a1
    235c:	01677733          	and	a4,a4,s6
    2360:	00e5ceb3          	xor	t4,a1,a4
    2364:	00271593          	slli	a1,a4,0x2
    2368:	01d5c5b3          	xor	a1,a1,t4
    236c:	00f00737          	lui	a4,0xf00
    2370:	0045d893          	srli	a7,a1,0x4
    2374:	0f070b93          	addi	s7,a4,240 # f000f0 <_stack_start+0xee9ee8>
    2378:	00b8c8b3          	xor	a7,a7,a1
    237c:	0178f8b3          	and	a7,a7,s7
    2380:	0115ceb3          	xor	t4,a1,a7
    2384:	00489593          	slli	a1,a7,0x4
    2388:	01d5c5b3          	xor	a1,a1,t4
    238c:	0085de93          	srli	t4,a1,0x8
    2390:	00beceb3          	xor	t4,t4,a1
    2394:	001f5893          	srli	a7,t5,0x1
    2398:	01aefeb3          	and	t4,t4,s10
    239c:	01e8c8b3          	xor	a7,a7,t5
    23a0:	01d5c5b3          	xor	a1,a1,t4
    23a4:	0138f8b3          	and	a7,a7,s3
    23a8:	008e9e93          	slli	t4,t4,0x8
    23ac:	00beceb3          	xor	t4,t4,a1
    23b0:	011f4f33          	xor	t5,t5,a7
    23b4:	00189593          	slli	a1,a7,0x1
    23b8:	01e5c5b3          	xor	a1,a1,t5
    23bc:	0025d893          	srli	a7,a1,0x2
    23c0:	00b8c8b3          	xor	a7,a7,a1
    23c4:	0168f8b3          	and	a7,a7,s6
    23c8:	0115cf33          	xor	t5,a1,a7
    23cc:	00289593          	slli	a1,a7,0x2
    23d0:	01e5c5b3          	xor	a1,a1,t5
    23d4:	0045d893          	srli	a7,a1,0x4
    23d8:	00b8c8b3          	xor	a7,a7,a1
    23dc:	0178f8b3          	and	a7,a7,s7
    23e0:	0115cf33          	xor	t5,a1,a7
    23e4:	00489593          	slli	a1,a7,0x4
    23e8:	01e5c5b3          	xor	a1,a1,t5
    23ec:	0085d893          	srli	a7,a1,0x8
    23f0:	00b8c8b3          	xor	a7,a7,a1
    23f4:	01a8f8b3          	and	a7,a7,s10
    23f8:	0115c5b3          	xor	a1,a1,a7
    23fc:	00889893          	slli	a7,a7,0x8
    2400:	fff50513          	addi	a0,a0,-1
    2404:	00b8c5b3          	xor	a1,a7,a1
    2408:	00aeff33          	and	t5,t4,a0
    240c:	01059893          	slli	a7,a1,0x10
  to_bit_interleaving(K1, U64BIG(*(u64*)(k + 8)));
    2410:	00862283          	lw	t0,8(a2)
  to_bit_interleaving(K0, U64BIG(*(u64*)k));
    2414:	011f67b3          	or	a5,t5,a7
  to_bit_interleaving(K1, U64BIG(*(u64*)(k + 8)));
    2418:	00c62f03          	lw	t5,12(a2)
  to_bit_interleaving(K0, U64BIG(*(u64*)k));
    241c:	010ed893          	srli	a7,t4,0x10
    2420:	ffff0eb7          	lui	t4,0xffff0
    2424:	01d5f5b3          	and	a1,a1,t4
    2428:	00f12623          	sw	a5,12(sp)
  to_bit_interleaving(K1, U64BIG(*(u64*)(k + 8)));
    242c:	0082d613          	srli	a2,t0,0x8
  to_bit_interleaving(K0, U64BIG(*(u64*)k));
    2430:	00b8e7b3          	or	a5,a7,a1
  to_bit_interleaving(K1, U64BIG(*(u64*)(k + 8)));
    2434:	018f1593          	slli	a1,t5,0x18
    2438:	00c5e633          	or	a2,a1,a2
    243c:	0182df93          	srli	t6,t0,0x18
    2440:	008f1593          	slli	a1,t5,0x8
    2444:	01f5efb3          	or	t6,a1,t6
    2448:	00829593          	slli	a1,t0,0x8
    244c:	00b875b3          	and	a1,a6,a1
    2450:	01829293          	slli	t0,t0,0x18
    2454:	0055e5b3          	or	a1,a1,t0
    2458:	01a672b3          	and	t0,a2,s10
    245c:	0055e5b3          	or	a1,a1,t0
    2460:	00c6f633          	and	a2,a3,a2
    2464:	0ffff293          	andi	t0,t6,255
    2468:	01f87fb3          	and	t6,a6,t6
    246c:	008f5893          	srli	a7,t5,0x8
    2470:	01f66633          	or	a2,a2,t6
    2474:	018f5f13          	srli	t5,t5,0x18
    2478:	01e66633          	or	a2,a2,t5
    247c:	01a8f8b3          	and	a7,a7,s10
    2480:	01166633          	or	a2,a2,a7
    2484:	00165893          	srli	a7,a2,0x1
    2488:	00c8c8b3          	xor	a7,a7,a2
    248c:	0138f8b3          	and	a7,a7,s3
    2490:	01164633          	xor	a2,a2,a7
    2494:	00189893          	slli	a7,a7,0x1
    2498:	00c8c633          	xor	a2,a7,a2
    249c:	00265893          	srli	a7,a2,0x2
    24a0:	00c8c8b3          	xor	a7,a7,a2
    24a4:	0168f8b3          	and	a7,a7,s6
    24a8:	01164633          	xor	a2,a2,a7
    24ac:	00289893          	slli	a7,a7,0x2
    24b0:	00c8c633          	xor	a2,a7,a2
    24b4:	00465f13          	srli	t5,a2,0x4
    24b8:	00cf4f33          	xor	t5,t5,a2
    24bc:	017f7f33          	and	t5,t5,s7
    24c0:	01e64633          	xor	a2,a2,t5
    24c4:	004f1f13          	slli	t5,t5,0x4
    24c8:	00cf4633          	xor	a2,t5,a2
    24cc:	0055e5b3          	or	a1,a1,t0
    24d0:	00865893          	srli	a7,a2,0x8
    24d4:	00c8c8b3          	xor	a7,a7,a2
    24d8:	0015df13          	srli	t5,a1,0x1
    24dc:	01a8f8b3          	and	a7,a7,s10
    24e0:	00bf4f33          	xor	t5,t5,a1
    24e4:	01164633          	xor	a2,a2,a7
    24e8:	013f7f33          	and	t5,t5,s3
    24ec:	00889893          	slli	a7,a7,0x8
    24f0:	00c8c8b3          	xor	a7,a7,a2
    24f4:	01e5c5b3          	xor	a1,a1,t5
    24f8:	001f1613          	slli	a2,t5,0x1
    24fc:	00b64633          	xor	a2,a2,a1
    2500:	00265593          	srli	a1,a2,0x2
    2504:	00c5c5b3          	xor	a1,a1,a2
    2508:	0165f5b3          	and	a1,a1,s6
    250c:	00b64f33          	xor	t5,a2,a1
    2510:	00259613          	slli	a2,a1,0x2
    2514:	01e64633          	xor	a2,a2,t5
    2518:	00465593          	srli	a1,a2,0x4
    251c:	00c5c5b3          	xor	a1,a1,a2
    2520:	0175f5b3          	and	a1,a1,s7
    2524:	00b64f33          	xor	t5,a2,a1
    2528:	00459613          	slli	a2,a1,0x4
    252c:	01e64633          	xor	a2,a2,t5
    2530:	00865593          	srli	a1,a2,0x8
    2534:	00c5c5b3          	xor	a1,a1,a2
    2538:	01a5f5b3          	and	a1,a1,s10
    253c:	00b64633          	xor	a2,a2,a1
    2540:	00859593          	slli	a1,a1,0x8
    2544:	00c5c633          	xor	a2,a1,a2
    2548:	00a8ff33          	and	t5,a7,a0
    254c:	01061593          	slli	a1,a2,0x10
  to_bit_interleaving(N0, U64BIG(*(u64*)npub));
    2550:	000e2383          	lw	t2,0(t3)
  to_bit_interleaving(K0, U64BIG(*(u64*)k));
    2554:	00f12823          	sw	a5,16(sp)
  to_bit_interleaving(K1, U64BIG(*(u64*)(k + 8)));
    2558:	00bf67b3          	or	a5,t5,a1
  to_bit_interleaving(N0, U64BIG(*(u64*)npub));
    255c:	004e2f03          	lw	t5,4(t3)
  to_bit_interleaving(K1, U64BIG(*(u64*)(k + 8)));
    2560:	01d67633          	and	a2,a2,t4
    2564:	0108d893          	srli	a7,a7,0x10
    2568:	00f12a23          	sw	a5,20(sp)
  to_bit_interleaving(N0, U64BIG(*(u64*)npub));
    256c:	018f1593          	slli	a1,t5,0x18
  to_bit_interleaving(K1, U64BIG(*(u64*)(k + 8)));
    2570:	00c8e7b3          	or	a5,a7,a2
  to_bit_interleaving(N0, U64BIG(*(u64*)npub));
    2574:	0083d613          	srli	a2,t2,0x8
    2578:	00c5e633          	or	a2,a1,a2
    257c:	0183df93          	srli	t6,t2,0x18
    2580:	008f1593          	slli	a1,t5,0x8
    2584:	01f5efb3          	or	t6,a1,t6
    2588:	00839593          	slli	a1,t2,0x8
    258c:	00b872b3          	and	t0,a6,a1
    2590:	01839593          	slli	a1,t2,0x18
    2594:	00b2e5b3          	or	a1,t0,a1
    2598:	01a672b3          	and	t0,a2,s10
    259c:	0055e5b3          	or	a1,a1,t0
    25a0:	00c6f633          	and	a2,a3,a2
    25a4:	0ffff293          	andi	t0,t6,255
    25a8:	01f87fb3          	and	t6,a6,t6
    25ac:	008f5893          	srli	a7,t5,0x8
    25b0:	01f66633          	or	a2,a2,t6
    25b4:	018f5f13          	srli	t5,t5,0x18
    25b8:	01e66633          	or	a2,a2,t5
    25bc:	01a8f8b3          	and	a7,a7,s10
    25c0:	01166633          	or	a2,a2,a7
    25c4:	00165893          	srli	a7,a2,0x1
    25c8:	00c8c8b3          	xor	a7,a7,a2
    25cc:	0138f8b3          	and	a7,a7,s3
    25d0:	01164633          	xor	a2,a2,a7
    25d4:	00189893          	slli	a7,a7,0x1
    25d8:	00c8c633          	xor	a2,a7,a2
    25dc:	00265f13          	srli	t5,a2,0x2
    25e0:	00cf4f33          	xor	t5,t5,a2
    25e4:	016f7f33          	and	t5,t5,s6
    25e8:	01e64633          	xor	a2,a2,t5
    25ec:	002f1893          	slli	a7,t5,0x2
    25f0:	00c8c8b3          	xor	a7,a7,a2
    25f4:	0048df13          	srli	t5,a7,0x4
    25f8:	011f4f33          	xor	t5,t5,a7
    25fc:	017f7f33          	and	t5,t5,s7
    2600:	01e8c633          	xor	a2,a7,t5
    2604:	004f1893          	slli	a7,t5,0x4
    2608:	00c8c8b3          	xor	a7,a7,a2
    260c:	0088d613          	srli	a2,a7,0x8
    2610:	01164633          	xor	a2,a2,a7
    2614:	01a67633          	and	a2,a2,s10
    2618:	0055e5b3          	or	a1,a1,t0
    261c:	00c8c8b3          	xor	a7,a7,a2
    2620:	00861613          	slli	a2,a2,0x8
    2624:	01164633          	xor	a2,a2,a7
    2628:	0015d893          	srli	a7,a1,0x1
    262c:	00b8c8b3          	xor	a7,a7,a1
    2630:	0138f8b3          	and	a7,a7,s3
    2634:	0115c5b3          	xor	a1,a1,a7
    2638:	00189893          	slli	a7,a7,0x1
    263c:	00b8c8b3          	xor	a7,a7,a1
    2640:	0028df13          	srli	t5,a7,0x2
    2644:	011f4f33          	xor	t5,t5,a7
    2648:	016f7f33          	and	t5,t5,s6
    264c:	01e8c5b3          	xor	a1,a7,t5
    2650:	002f1893          	slli	a7,t5,0x2
    2654:	00b8c8b3          	xor	a7,a7,a1
    2658:	0048df13          	srli	t5,a7,0x4
    265c:	011f4f33          	xor	t5,t5,a7
    2660:	017f7f33          	and	t5,t5,s7
    2664:	01e8c5b3          	xor	a1,a7,t5
    2668:	004f1893          	slli	a7,t5,0x4
    266c:	00b8c8b3          	xor	a7,a7,a1
    2670:	0088d593          	srli	a1,a7,0x8
    2674:	0115c5b3          	xor	a1,a1,a7
    2678:	01a5f5b3          	and	a1,a1,s10
    267c:	00b8c8b3          	xor	a7,a7,a1
    2680:	00859593          	slli	a1,a1,0x8
    2684:	0115c5b3          	xor	a1,a1,a7
  to_bit_interleaving(N1, U64BIG(*(u64*)(npub + 8)));
    2688:	008e2883          	lw	a7,8(t3)
    268c:	00ce2e03          	lw	t3,12(t3)
  to_bit_interleaving(K1, U64BIG(*(u64*)(k + 8)));
    2690:	00f12c23          	sw	a5,24(sp)
  to_bit_interleaving(N1, U64BIG(*(u64*)(npub + 8)));
    2694:	0088df93          	srli	t6,a7,0x8
    2698:	018e1f13          	slli	t5,t3,0x18
    269c:	01ff6fb3          	or	t6,t5,t6
    26a0:	008e1393          	slli	t2,t3,0x8
    26a4:	0188df13          	srli	t5,a7,0x18
    26a8:	01e3ef33          	or	t5,t2,t5
    26ac:	00889393          	slli	t2,a7,0x8
    26b0:	01f6f6b3          	and	a3,a3,t6
    26b4:	007873b3          	and	t2,a6,t2
    26b8:	01e87833          	and	a6,a6,t5
    26bc:	0106e6b3          	or	a3,a3,a6
    26c0:	008e5293          	srli	t0,t3,0x8
    26c4:	018e5e13          	srli	t3,t3,0x18
    26c8:	01c6ee33          	or	t3,a3,t3
    26cc:	01a2f2b3          	and	t0,t0,s10
    26d0:	005e62b3          	or	t0,t3,t0
    26d4:	0012d813          	srli	a6,t0,0x1
    26d8:	00584833          	xor	a6,a6,t0
    26dc:	01387833          	and	a6,a6,s3
    26e0:	0102c2b3          	xor	t0,t0,a6
    26e4:	00181813          	slli	a6,a6,0x1
    26e8:	005842b3          	xor	t0,a6,t0
    26ec:	0022d693          	srli	a3,t0,0x2
    26f0:	0056c6b3          	xor	a3,a3,t0
    26f4:	0166f6b3          	and	a3,a3,s6
    26f8:	00d2c2b3          	xor	t0,t0,a3
    26fc:	00269813          	slli	a6,a3,0x2
    2700:	00584833          	xor	a6,a6,t0
    2704:	00485e13          	srli	t3,a6,0x4
    2708:	010e4e33          	xor	t3,t3,a6
    270c:	017e7e33          	and	t3,t3,s7
    2710:	01c846b3          	xor	a3,a6,t3
    2714:	004e1813          	slli	a6,t3,0x4
    2718:	00d84833          	xor	a6,a6,a3
    271c:	00885693          	srli	a3,a6,0x8
    2720:	01889893          	slli	a7,a7,0x18
    2724:	0113e8b3          	or	a7,t2,a7
    2728:	0106c6b3          	xor	a3,a3,a6
    272c:	01aff3b3          	and	t2,t6,s10
    2730:	0078e8b3          	or	a7,a7,t2
    2734:	01a6f6b3          	and	a3,a3,s10
    2738:	0fff7393          	andi	t2,t5,255
    273c:	0078e8b3          	or	a7,a7,t2
    2740:	00d84833          	xor	a6,a6,a3
    2744:	00869693          	slli	a3,a3,0x8
    2748:	0106c6b3          	xor	a3,a3,a6
    274c:	0018d813          	srli	a6,a7,0x1
    2750:	01184833          	xor	a6,a6,a7
    2754:	01387833          	and	a6,a6,s3
    2758:	0108c8b3          	xor	a7,a7,a6
    275c:	00181813          	slli	a6,a6,0x1
    2760:	011848b3          	xor	a7,a6,a7
    2764:	0028de13          	srli	t3,a7,0x2
    2768:	011e4e33          	xor	t3,t3,a7
    276c:	016e7e33          	and	t3,t3,s6
    2770:	01c8c8b3          	xor	a7,a7,t3
    2774:	002e1813          	slli	a6,t3,0x2
    2778:	01184833          	xor	a6,a6,a7
    277c:	00485893          	srli	a7,a6,0x4
    2780:	0108c8b3          	xor	a7,a7,a6
    2784:	0178f8b3          	and	a7,a7,s7
    2788:	01184e33          	xor	t3,a6,a7
    278c:	00489813          	slli	a6,a7,0x4
    2790:	01c84833          	xor	a6,a6,t3
  s_o[1] = K0.o;
    2794:	01012783          	lw	a5,16(sp)
  to_bit_interleaving(N1, U64BIG(*(u64*)(npub + 8)));
    2798:	00885893          	srli	a7,a6,0x8
    279c:	0108c8b3          	xor	a7,a7,a6
    27a0:	01a8f8b3          	and	a7,a7,s10
  s_o[1] = K0.o;
    27a4:	04f12623          	sw	a5,76(sp)
  s_e[1] = K0.e;
    27a8:	00c12783          	lw	a5,12(sp)
    27ac:	01184833          	xor	a6,a6,a7
  to_bit_interleaving(N1, U64BIG(*(u64*)(npub + 8)));
    27b0:	00889893          	slli	a7,a7,0x8
    27b4:	0108c833          	xor	a6,a7,a6
  s_o[0] = x0.o;
    27b8:	882208b7          	lui	a7,0x88220
    27bc:	05112423          	sw	a7,72(sp)
  s_e[1] = K0.e;
    27c0:	06f12023          	sw	a5,96(sp)
  s_e[0] = x0.e; 
    27c4:	002008b7          	lui	a7,0x200
  s_e[2] = K1.e;
    27c8:	01412783          	lw	a5,20(sp)
  to_bit_interleaving(N0, U64BIG(*(u64*)npub));
    27cc:	01059e13          	slli	t3,a1,0x10
  s_e[0] = x0.e; 
    27d0:	05112e23          	sw	a7,92(sp)
  to_bit_interleaving(N0, U64BIG(*(u64*)npub));
    27d4:	01d5f5b3          	and	a1,a1,t4
    27d8:	00a678b3          	and	a7,a2,a0
    27dc:	01065613          	srli	a2,a2,0x10
    27e0:	00b66633          	or	a2,a2,a1
  s_e[2] = K1.e;
    27e4:	06f12223          	sw	a5,100(sp)
  s_o[3] = N0.o;
    27e8:	04c12a23          	sw	a2,84(sp)
  s_o[2] = K1.o;
    27ec:	01812783          	lw	a5,24(sp)
  to_bit_interleaving(N1, U64BIG(*(u64*)(npub + 8)));
    27f0:	01081613          	slli	a2,a6,0x10
    27f4:	00a6f533          	and	a0,a3,a0
    27f8:	01d87833          	and	a6,a6,t4
    27fc:	0106d693          	srli	a3,a3,0x10
    2800:	0106e6b3          	or	a3,a3,a6
    2804:	00c56533          	or	a0,a0,a2
  to_bit_interleaving(N0, U64BIG(*(u64*)npub));
    2808:	01c8e8b3          	or	a7,a7,t3
  s_e[4] = N1.e;
    280c:	06a12623          	sw	a0,108(sp)
  s_o[4] = N1.o;
    2810:	04d12c23          	sw	a3,88(sp)
  P12();
    2814:	05c10613          	addi	a2,sp,92
    2818:	04810693          	addi	a3,sp,72
    281c:	00c00593          	li	a1,12
    2820:	00c00513          	li	a0,12
  s_o[2] = K1.o;
    2824:	04f12823          	sw	a5,80(sp)
  s_e[3] = N0.e;
    2828:	07112423          	sw	a7,104(sp)
  P12();
    282c:	e4cff0ef          	jal	ra,1e78 <ROUND>
    2830:	04810693          	addi	a3,sp,72
    2834:	05c10613          	addi	a2,sp,92
    2838:	00c00593          	li	a1,12
    283c:	00900513          	li	a0,9
    2840:	e38ff0ef          	jal	ra,1e78 <ROUND>
    2844:	04810693          	addi	a3,sp,72
    2848:	05c10613          	addi	a2,sp,92
    284c:	00900593          	li	a1,9
    2850:	00c00513          	li	a0,12
    2854:	e24ff0ef          	jal	ra,1e78 <ROUND>
    2858:	04810693          	addi	a3,sp,72
    285c:	05c10613          	addi	a2,sp,92
    2860:	00900593          	li	a1,9
    2864:	00900513          	li	a0,9
    2868:	e10ff0ef          	jal	ra,1e78 <ROUND>
    286c:	04810693          	addi	a3,sp,72
    2870:	05c10613          	addi	a2,sp,92
    2874:	00c00593          	li	a1,12
    2878:	00600513          	li	a0,6
    287c:	dfcff0ef          	jal	ra,1e78 <ROUND>
    2880:	04810693          	addi	a3,sp,72
    2884:	05c10613          	addi	a2,sp,92
    2888:	00c00593          	li	a1,12
    288c:	00300513          	li	a0,3
    2890:	de8ff0ef          	jal	ra,1e78 <ROUND>
    2894:	04810693          	addi	a3,sp,72
    2898:	05c10613          	addi	a2,sp,92
    289c:	00900593          	li	a1,9
    28a0:	00600513          	li	a0,6
    28a4:	dd4ff0ef          	jal	ra,1e78 <ROUND>
    28a8:	04810693          	addi	a3,sp,72
    28ac:	05c10613          	addi	a2,sp,92
    28b0:	00900593          	li	a1,9
    28b4:	00300513          	li	a0,3
    28b8:	dc0ff0ef          	jal	ra,1e78 <ROUND>
    28bc:	04810693          	addi	a3,sp,72
    28c0:	05c10613          	addi	a2,sp,92
    28c4:	00600593          	li	a1,6
    28c8:	00c00513          	li	a0,12
    28cc:	dacff0ef          	jal	ra,1e78 <ROUND>
    28d0:	04810693          	addi	a3,sp,72
    28d4:	05c10613          	addi	a2,sp,92
    28d8:	00600593          	li	a1,6
    28dc:	00900513          	li	a0,9
    28e0:	d98ff0ef          	jal	ra,1e78 <ROUND>
    28e4:	04810693          	addi	a3,sp,72
    28e8:	05c10613          	addi	a2,sp,92
    28ec:	00300593          	li	a1,3
    28f0:	00c00513          	li	a0,12
    28f4:	d84ff0ef          	jal	ra,1e78 <ROUND>
    28f8:	04810693          	addi	a3,sp,72
    28fc:	05c10613          	addi	a2,sp,92
    2900:	00300593          	li	a1,3
    2904:	00900513          	li	a0,9
    2908:	d70ff0ef          	jal	ra,1e78 <ROUND>
  s_e[3] ^= K0.e;
    290c:	06812683          	lw	a3,104(sp)
    2910:	00c12783          	lw	a5,12(sp)
    2914:	00f6c6b3          	xor	a3,a3,a5
    2918:	06d12423          	sw	a3,104(sp)
  s_o[3] ^= K0.o;
    291c:	01012783          	lw	a5,16(sp)
    2920:	05412683          	lw	a3,84(sp)
    2924:	00f6c6b3          	xor	a3,a3,a5
    2928:	04d12a23          	sw	a3,84(sp)
  s_e[4] ^= K1.e;
    292c:	01412783          	lw	a5,20(sp)
    2930:	06c12683          	lw	a3,108(sp)
    2934:	00f6c6b3          	xor	a3,a3,a5
    2938:	06d12623          	sw	a3,108(sp)
  s_o[4] ^= K1.o;
    293c:	01812783          	lw	a5,24(sp)
    2940:	05812683          	lw	a3,88(sp)
    2944:	00f6c6b3          	xor	a3,a3,a5
    2948:	04d12c23          	sw	a3,88(sp)
  if (adlen) {
    294c:	015de6b3          	or	a3,s11,s5
    2950:	00068463          	beqz	a3,2958 <crypto_aead_decrypt+0x77c>
    2954:	7b90006f          	j	390c <crypto_aead_decrypt+0x1730>
  s_e[4] ^= 1;
    2958:	06c12783          	lw	a5,108(sp)
  while (clen >= RATE) {
    295c:	02c12c03          	lw	s8,44(sp)
    2960:	02812803          	lw	a6,40(sp)
  s_e[4] ^= 1;
    2964:	0017c793          	xori	a5,a5,1
    from_bit_interleaving(tmp0, x0);
    2968:	00010f37          	lui	t5,0x10
    296c:	0f0018b7          	lui	a7,0xf001
    2970:	00f00cb7          	lui	s9,0xf00
    2974:	30303337          	lui	t1,0x30303
    2978:	0c0c1d37          	lui	s10,0xc0c1
    297c:	44444e37          	lui	t3,0x44444
    2980:	22222db7          	lui	s11,0x22222
  s_e[4] ^= 1;
    2984:	06f12623          	sw	a5,108(sp)
    from_bit_interleaving(tmp0, x0);
    2988:	ffff0e93          	addi	t4,t5,-1 # ffff <_bss_end+0xbd8f>
    298c:	f0088893          	addi	a7,a7,-256 # f000f00 <_stack_start+0xefeacf8>
    2990:	0f0c8c93          	addi	s9,s9,240 # f000f0 <_stack_start+0xee9ee8>
    2994:	03030313          	addi	t1,t1,48 # 30303030 <_stack_start+0x302ece28>
    2998:	c0cd0d13          	addi	s10,s10,-1012 # c0c0c0c <_stack_start+0xc0aaa04>
    299c:	444e0e13          	addi	t3,t3,1092 # 44444444 <_stack_start+0x4442e23c>
    29a0:	222d8d93          	addi	s11,s11,546 # 22222222 <_stack_start+0x2220c01a>
    x0.e = s_e[0]; x0.o = s_o[0]; 
    29a4:	05c12583          	lw	a1,92(sp)
    29a8:	04812283          	lw	t0,72(sp)
    from_bit_interleaving(tmp0, x0);
    29ac:	f00f0393          	addi	t2,t5,-256
    29b0:	01d5f633          	and	a2,a1,t4
    29b4:	01029793          	slli	a5,t0,0x10
    29b8:	00f66633          	or	a2,a2,a5
    29bc:	00865793          	srli	a5,a2,0x8
    29c0:	00c7c7b3          	xor	a5,a5,a2
    29c4:	00ff0b37          	lui	s6,0xff0
    29c8:	00879693          	slli	a3,a5,0x8
    29cc:	0077f7b3          	and	a5,a5,t2
    29d0:	0166f733          	and	a4,a3,s6
    29d4:	00c7c7b3          	xor	a5,a5,a2
    29d8:	00f746b3          	xor	a3,a4,a5
    29dc:	0046d793          	srli	a5,a3,0x4
    29e0:	00d7c7b3          	xor	a5,a5,a3
    29e4:	00479713          	slli	a4,a5,0x4
    29e8:	0197f7b3          	and	a5,a5,s9
    29ec:	00d7c7b3          	xor	a5,a5,a3
    29f0:	01177fb3          	and	t6,a4,a7
    29f4:	00ffc733          	xor	a4,t6,a5
    29f8:	00275793          	srli	a5,a4,0x2
    29fc:	00e7c7b3          	xor	a5,a5,a4
    2a00:	ffff0bb7          	lui	s7,0xffff0
    2a04:	00279f93          	slli	t6,a5,0x2
    2a08:	0172f2b3          	and	t0,t0,s7
    2a0c:	01a7f7b3          	and	a5,a5,s10
    2a10:	0105d593          	srli	a1,a1,0x10
    2a14:	0055e5b3          	or	a1,a1,t0
    2a18:	00e7c7b3          	xor	a5,a5,a4
    2a1c:	006ffab3          	and	s5,t6,t1
    2a20:	00facfb3          	xor	t6,s5,a5
    2a24:	0085d793          	srli	a5,a1,0x8
    2a28:	00b7c7b3          	xor	a5,a5,a1
    2a2c:	00879613          	slli	a2,a5,0x8
    2a30:	0077f7b3          	and	a5,a5,t2
    2a34:	00b7c7b3          	xor	a5,a5,a1
    2a38:	01667633          	and	a2,a2,s6
    2a3c:	00f64633          	xor	a2,a2,a5
    2a40:	00465793          	srli	a5,a2,0x4
    2a44:	00c7c7b3          	xor	a5,a5,a2
    2a48:	00479693          	slli	a3,a5,0x4
    2a4c:	0197f7b3          	and	a5,a5,s9
    2a50:	00c7c7b3          	xor	a5,a5,a2
    2a54:	0116f6b3          	and	a3,a3,a7
    2a58:	00f6c6b3          	xor	a3,a3,a5
    2a5c:	0026d793          	srli	a5,a3,0x2
    2a60:	00d7c7b3          	xor	a5,a5,a3
    x1.e = s_e[1]; x1.o = s_o[1];
    2a64:	06012a83          	lw	s5,96(sp)
    2a68:	04c12603          	lw	a2,76(sp)
    from_bit_interleaving(tmp0, x0);
    2a6c:	00279293          	slli	t0,a5,0x2
    2a70:	01a7f7b3          	and	a5,a5,s10
    2a74:	00d7c7b3          	xor	a5,a5,a3
    2a78:	0062f2b3          	and	t0,t0,t1
    2a7c:	00f2c2b3          	xor	t0,t0,a5
    from_bit_interleaving(tmp1, x1);
    2a80:	01daf9b3          	and	s3,s5,t4
    2a84:	01061793          	slli	a5,a2,0x10
    2a88:	00f9e9b3          	or	s3,s3,a5
    2a8c:	0089d793          	srli	a5,s3,0x8
    2a90:	0137c7b3          	xor	a5,a5,s3
    2a94:	00879513          	slli	a0,a5,0x8
    2a98:	0077f7b3          	and	a5,a5,t2
    2a9c:	0137c7b3          	xor	a5,a5,s3
    2aa0:	01657533          	and	a0,a0,s6
    2aa4:	00f54533          	xor	a0,a0,a5
    2aa8:	00455793          	srli	a5,a0,0x4
    2aac:	00a7c7b3          	xor	a5,a5,a0
    2ab0:	00479093          	slli	ra,a5,0x4
    2ab4:	0197f7b3          	and	a5,a5,s9
    2ab8:	00a7c7b3          	xor	a5,a5,a0
    2abc:	0110f0b3          	and	ra,ra,a7
    2ac0:	00f0c0b3          	xor	ra,ra,a5
    2ac4:	010ada93          	srli	s5,s5,0x10
    2ac8:	01767633          	and	a2,a2,s7
    2acc:	00cae633          	or	a2,s5,a2
    2ad0:	0020d793          	srli	a5,ra,0x2
    2ad4:	0017c7b3          	xor	a5,a5,ra
    2ad8:	00865513          	srli	a0,a2,0x8
    2adc:	00c54533          	xor	a0,a0,a2
    2ae0:	00279593          	slli	a1,a5,0x2
    2ae4:	01a7f7b3          	and	a5,a5,s10
    2ae8:	0017c7b3          	xor	a5,a5,ra
    2aec:	00851093          	slli	ra,a0,0x8
    2af0:	00757533          	and	a0,a0,t2
    2af4:	00c54533          	xor	a0,a0,a2
    2af8:	0160f0b3          	and	ra,ra,s6
    2afc:	00a0c0b3          	xor	ra,ra,a0
    2b00:	0040d613          	srli	a2,ra,0x4
    2b04:	00164633          	xor	a2,a2,ra
    2b08:	00461393          	slli	t2,a2,0x4
    2b0c:	01967633          	and	a2,a2,s9
    2b10:	0113f3b3          	and	t2,t2,a7
    2b14:	001640b3          	xor	ra,a2,ra
    2b18:	0013c0b3          	xor	ra,t2,ra
    2b1c:	0020d613          	srli	a2,ra,0x2
    2b20:	00164633          	xor	a2,a2,ra
    2b24:	00261393          	slli	t2,a2,0x2
    2b28:	01a67633          	and	a2,a2,s10
    2b2c:	00164633          	xor	a2,a2,ra
    2b30:	0063f3b3          	and	t2,t2,t1
    2b34:	00c3c3b3          	xor	t2,t2,a2
    from_bit_interleaving(tmp0, x0);
    2b38:	0012d693          	srli	a3,t0,0x1
    2b3c:	0056c6b3          	xor	a3,a3,t0
    from_bit_interleaving(tmp1, x1);
    2b40:	0013d613          	srli	a2,t2,0x1
    2b44:	0065f5b3          	and	a1,a1,t1
    2b48:	00f5c5b3          	xor	a1,a1,a5
    2b4c:	00764633          	xor	a2,a2,t2
    from_bit_interleaving(tmp0, x0);
    2b50:	00169513          	slli	a0,a3,0x1
    2b54:	01b6f6b3          	and	a3,a3,s11
    from_bit_interleaving(tmp1, x1);
    2b58:	0015d793          	srli	a5,a1,0x1
    from_bit_interleaving(tmp0, x0);
    2b5c:	0056c2b3          	xor	t0,a3,t0
    2b60:	001fd713          	srli	a4,t6,0x1
    from_bit_interleaving(tmp1, x1);
    2b64:	00161693          	slli	a3,a2,0x1
    2b68:	01b67633          	and	a2,a2,s11
    2b6c:	00b7c7b3          	xor	a5,a5,a1
    from_bit_interleaving(tmp0, x0);
    2b70:	01f74733          	xor	a4,a4,t6
    from_bit_interleaving(tmp1, x1);
    2b74:	01c6f6b3          	and	a3,a3,t3
    2b78:	007643b3          	xor	t2,a2,t2
    from_bit_interleaving(tmp0, x0);
    2b7c:	00171a93          	slli	s5,a4,0x1
    from_bit_interleaving(tmp1, x1);
    2b80:	0076c3b3          	xor	t2,a3,t2
    2b84:	00179993          	slli	s3,a5,0x1
  while (clen >= RATE) {
    2b88:	ff048693          	addi	a3,s1,-16
    from_bit_interleaving(tmp0, x0);
    2b8c:	01b77733          	and	a4,a4,s11
    from_bit_interleaving(tmp1, x1);
    2b90:	01b7f7b3          	and	a5,a5,s11
    from_bit_interleaving(tmp0, x0);
    2b94:	01f74733          	xor	a4,a4,t6
    from_bit_interleaving(tmp1, x1);
    2b98:	00b7c7b3          	xor	a5,a5,a1
    from_bit_interleaving(tmp0, x0);
    2b9c:	01c57533          	and	a0,a0,t3
  while (clen >= RATE) {
    2ba0:	0096b5b3          	sltu	a1,a3,s1
    from_bit_interleaving(tmp0, x0);
    2ba4:	01cafab3          	and	s5,s5,t3
    from_bit_interleaving(tmp1, x1);
    2ba8:	01c9f9b3          	and	s3,s3,t3
  while (clen >= RATE) {
    2bac:	fff90913          	addi	s2,s2,-1
    from_bit_interleaving(tmp0, x0);
    2bb0:	005542b3          	xor	t0,a0,t0
    2bb4:	00eacab3          	xor	s5,s5,a4
    from_bit_interleaving(tmp1, x1);
    2bb8:	00f9c9b3          	xor	s3,s3,a5
  while (clen >= RATE) {
    2bbc:	01258933          	add	s2,a1,s2
    from_bit_interleaving(tmp0, x0);
    2bc0:	000a8713          	mv	a4,s5
    2bc4:	00028b93          	mv	s7,t0
    from_bit_interleaving(tmp1, x1);
    2bc8:	00098613          	mv	a2,s3
    2bcc:	00038b13          	mv	s6,t2
  while (clen >= RATE) {
    2bd0:	00068493          	mv	s1,a3
    2bd4:	5c0916e3          	bnez	s2,39a0 <crypto_aead_decrypt+0x17c4>
    2bd8:	00f00793          	li	a5,15
    2bdc:	5cd7e2e3          	bltu	a5,a3,39a0 <crypto_aead_decrypt+0x17c4>
    2be0:	01ca1793          	slli	a5,s4,0x1c
    2be4:	00445513          	srli	a0,s0,0x4
    2be8:	00a7e533          	or	a0,a5,a0
    2bec:	02812783          	lw	a5,40(sp)
    2bf0:	00451493          	slli	s1,a0,0x4
    2bf4:	004a5593          	srli	a1,s4,0x4
    2bf8:	00978c33          	add	s8,a5,s1
    2bfc:	02c12783          	lw	a5,44(sp)
    2c00:	ff000613          	li	a2,-16
    2c04:	fff00693          	li	a3,-1
    2c08:	009784b3          	add	s1,a5,s1
    2c0c:	4c4010ef          	jal	ra,40d0 <__muldi3>
    2c10:	00850433          	add	s0,a0,s0
    2c14:	00a43533          	sltu	a0,s0,a0
    2c18:	01458a33          	add	s4,a1,s4
    2c1c:	01450a33          	add	s4,a0,s4
  for (i = 0; i < clen; ++i, ++m, ++c) {
    2c20:	00000d93          	li	s11,0
    if (i < 8) {
    2c24:	00700d13          	li	s10,7
  for (i = 0; i < clen; ++i, ++m, ++c) {
    2c28:	000a0463          	beqz	s4,2c30 <crypto_aead_decrypt+0xa54>
    2c2c:	1bc0106f          	j	3de8 <crypto_aead_decrypt+0x1c0c>
    2c30:	008df463          	bgeu	s11,s0,2c38 <crypto_aead_decrypt+0xa5c>
    2c34:	1b40106f          	j	3de8 <crypto_aead_decrypt+0x1c0c>
  if (clen < 8)
    2c38:	00700613          	li	a2,7
    2c3c:	00867463          	bgeu	a2,s0,2c44 <crypto_aead_decrypt+0xa68>
    2c40:	27c0106f          	j	3ebc <crypto_aead_decrypt+0x1ce0>
    tmp0 ^= INS_BYTE64(0x80, clen);
    2c44:	40860633          	sub	a2,a2,s0
    2c48:	00361613          	slli	a2,a2,0x3
    2c4c:	08000513          	li	a0,128
    2c50:	00000593          	li	a1,0
    2c54:	452010ef          	jal	ra,40a6 <__ashldi3>
    2c58:	00aacab3          	xor	s5,s5,a0
    2c5c:	00bbcbb3          	xor	s7,s7,a1
  to_bit_interleaving(x0, tmp0);
    2c60:	001ad713          	srli	a4,s5,0x1
    2c64:	22222c37          	lui	s8,0x22222
    2c68:	222c0c13          	addi	s8,s8,546 # 22222222 <_stack_start+0x2220c01a>
    2c6c:	01574733          	xor	a4,a4,s5
    2c70:	01877733          	and	a4,a4,s8
    2c74:	00eacab3          	xor	s5,s5,a4
    2c78:	00171713          	slli	a4,a4,0x1
    2c7c:	01574733          	xor	a4,a4,s5
    2c80:	00275793          	srli	a5,a4,0x2
    2c84:	0c0c1cb7          	lui	s9,0xc0c1
    2c88:	c0cc8c93          	addi	s9,s9,-1012 # c0c0c0c <_stack_start+0xc0aaa04>
    2c8c:	00e7c7b3          	xor	a5,a5,a4
    2c90:	0197f7b3          	and	a5,a5,s9
    2c94:	00f74ab3          	xor	s5,a4,a5
    2c98:	00279713          	slli	a4,a5,0x2
    2c9c:	01574733          	xor	a4,a4,s5
    2ca0:	00475693          	srli	a3,a4,0x4
    2ca4:	00f00a37          	lui	s4,0xf00
    2ca8:	0f0a0a13          	addi	s4,s4,240 # f000f0 <_stack_start+0xee9ee8>
    2cac:	00e6c6b3          	xor	a3,a3,a4
    2cb0:	0146f6b3          	and	a3,a3,s4
    2cb4:	00d747b3          	xor	a5,a4,a3
    2cb8:	00469713          	slli	a4,a3,0x4
    2cbc:	00f74733          	xor	a4,a4,a5
    2cc0:	00875793          	srli	a5,a4,0x8
    2cc4:	00010437          	lui	s0,0x10
    2cc8:	f0040913          	addi	s2,s0,-256 # ff00 <_bss_end+0xbc90>
    2ccc:	00e7c7b3          	xor	a5,a5,a4
    2cd0:	0127f7b3          	and	a5,a5,s2
    2cd4:	00f74733          	xor	a4,a4,a5
    2cd8:	00879793          	slli	a5,a5,0x8
    2cdc:	00e7c7b3          	xor	a5,a5,a4
    2ce0:	001bd713          	srli	a4,s7,0x1
    2ce4:	01774733          	xor	a4,a4,s7
    2ce8:	01877733          	and	a4,a4,s8
    2cec:	00ebcbb3          	xor	s7,s7,a4
    2cf0:	00171713          	slli	a4,a4,0x1
    2cf4:	01774733          	xor	a4,a4,s7
    2cf8:	00275693          	srli	a3,a4,0x2
    2cfc:	00e6c6b3          	xor	a3,a3,a4
    2d00:	0196f6b3          	and	a3,a3,s9
    2d04:	00d74bb3          	xor	s7,a4,a3
    2d08:	00269713          	slli	a4,a3,0x2
    2d0c:	01774733          	xor	a4,a4,s7
    2d10:	00475693          	srli	a3,a4,0x4
    2d14:	00e6c6b3          	xor	a3,a3,a4
    2d18:	0146f6b3          	and	a3,a3,s4
    2d1c:	00d74bb3          	xor	s7,a4,a3
    2d20:	00469713          	slli	a4,a3,0x4
    2d24:	01774733          	xor	a4,a4,s7
    2d28:	00875693          	srli	a3,a4,0x8
    2d2c:	00e6c6b3          	xor	a3,a3,a4
    2d30:	0126f6b3          	and	a3,a3,s2
    2d34:	00d74733          	xor	a4,a4,a3
    2d38:	00869693          	slli	a3,a3,0x8
    2d3c:	ffff0ab7          	lui	s5,0xffff0
    2d40:	fff40413          	addi	s0,s0,-1
    2d44:	00e6c733          	xor	a4,a3,a4
    2d48:	01577633          	and	a2,a4,s5
    2d4c:	0107d693          	srli	a3,a5,0x10
    2d50:	01071713          	slli	a4,a4,0x10
    2d54:	0087f7b3          	and	a5,a5,s0
    2d58:	00e7e733          	or	a4,a5,a4
  s_e[0] = x0.e; 
    2d5c:	04e12e23          	sw	a4,92(sp)
  to_bit_interleaving(x1, tmp1);
    2d60:	0019d713          	srli	a4,s3,0x1
    2d64:	01374733          	xor	a4,a4,s3
    2d68:	01877733          	and	a4,a4,s8
    2d6c:	00e9c9b3          	xor	s3,s3,a4
    2d70:	00171713          	slli	a4,a4,0x1
    2d74:	01374733          	xor	a4,a4,s3
    2d78:	00275793          	srli	a5,a4,0x2
    2d7c:	00e7c7b3          	xor	a5,a5,a4
    2d80:	0197f7b3          	and	a5,a5,s9
    2d84:	00f749b3          	xor	s3,a4,a5
    2d88:	00279713          	slli	a4,a5,0x2
    2d8c:	01374733          	xor	a4,a4,s3
  to_bit_interleaving(x0, tmp0);
    2d90:	00c6e6b3          	or	a3,a3,a2
  s_o[0] = x0.o;
    2d94:	04d12423          	sw	a3,72(sp)
  to_bit_interleaving(x1, tmp1);
    2d98:	00475693          	srli	a3,a4,0x4
    2d9c:	00e6c6b3          	xor	a3,a3,a4
    2da0:	0146f6b3          	and	a3,a3,s4
    2da4:	00d747b3          	xor	a5,a4,a3
    2da8:	00469713          	slli	a4,a3,0x4
    2dac:	00f74733          	xor	a4,a4,a5
    2db0:	00875793          	srli	a5,a4,0x8
    2db4:	00e7c7b3          	xor	a5,a5,a4
    2db8:	0127f7b3          	and	a5,a5,s2
    2dbc:	00f74733          	xor	a4,a4,a5
    2dc0:	00879793          	slli	a5,a5,0x8
    2dc4:	00e7c7b3          	xor	a5,a5,a4
    2dc8:	001b5713          	srli	a4,s6,0x1
    2dcc:	01674733          	xor	a4,a4,s6
    2dd0:	01877733          	and	a4,a4,s8
    2dd4:	00eb4b33          	xor	s6,s6,a4
    2dd8:	00171713          	slli	a4,a4,0x1
    2ddc:	01674733          	xor	a4,a4,s6
    2de0:	00275693          	srli	a3,a4,0x2
    2de4:	00e6c6b3          	xor	a3,a3,a4
    2de8:	0196f6b3          	and	a3,a3,s9
    2dec:	00d74b33          	xor	s6,a4,a3
    2df0:	00269713          	slli	a4,a3,0x2
    2df4:	01674733          	xor	a4,a4,s6
    2df8:	00475693          	srli	a3,a4,0x4
    2dfc:	00e6c6b3          	xor	a3,a3,a4
    2e00:	0146f6b3          	and	a3,a3,s4
    2e04:	00d74b33          	xor	s6,a4,a3
    2e08:	00469713          	slli	a4,a3,0x4
    2e0c:	01674733          	xor	a4,a4,s6
    2e10:	00875693          	srli	a3,a4,0x8
    2e14:	00e6c6b3          	xor	a3,a3,a4
    2e18:	0126f6b3          	and	a3,a3,s2
    2e1c:	00d74733          	xor	a4,a4,a3
    2e20:	00869693          	slli	a3,a3,0x8
    2e24:	00e6c733          	xor	a4,a3,a4
    2e28:	01577633          	and	a2,a4,s5
    2e2c:	0107d693          	srli	a3,a5,0x10
    2e30:	01071713          	slli	a4,a4,0x10
    2e34:	0087f7b3          	and	a5,a5,s0
    2e38:	00e7e733          	or	a4,a5,a4
  s_e[1] = x1.e; 
    2e3c:	06e12023          	sw	a4,96(sp)
  s_e[2] ^= K0.e;
    2e40:	06412783          	lw	a5,100(sp)
    2e44:	00c12703          	lw	a4,12(sp)
  to_bit_interleaving(x1, tmp1);
    2e48:	00c6e6b3          	or	a3,a3,a2
  s_o[1] = x1.o;
    2e4c:	04d12623          	sw	a3,76(sp)
  s_e[2] ^= K0.e;
    2e50:	00e7c7b3          	xor	a5,a5,a4
    2e54:	06f12223          	sw	a5,100(sp)
  s_o[2] ^= K0.o;
    2e58:	01012703          	lw	a4,16(sp)
    2e5c:	05012783          	lw	a5,80(sp)
  P12();
    2e60:	04810693          	addi	a3,sp,72
    2e64:	05c10613          	addi	a2,sp,92
  s_o[2] ^= K0.o;
    2e68:	00e7c7b3          	xor	a5,a5,a4
    2e6c:	04f12823          	sw	a5,80(sp)
  s_e[3] ^= K1.e;
    2e70:	01412703          	lw	a4,20(sp)
    2e74:	06812783          	lw	a5,104(sp)
  P12();
    2e78:	00c00593          	li	a1,12
    2e7c:	00c00513          	li	a0,12
  s_e[3] ^= K1.e;
    2e80:	00e7c7b3          	xor	a5,a5,a4
    2e84:	06f12423          	sw	a5,104(sp)
  s_o[3] ^= K1.o;
    2e88:	01812703          	lw	a4,24(sp)
    2e8c:	05412783          	lw	a5,84(sp)
    2e90:	00e7c7b3          	xor	a5,a5,a4
    2e94:	04f12a23          	sw	a5,84(sp)
  P12();
    2e98:	fe1fe0ef          	jal	ra,1e78 <ROUND>
    2e9c:	04810693          	addi	a3,sp,72
    2ea0:	05c10613          	addi	a2,sp,92
    2ea4:	00c00593          	li	a1,12
    2ea8:	00900513          	li	a0,9
    2eac:	fcdfe0ef          	jal	ra,1e78 <ROUND>
    2eb0:	04810693          	addi	a3,sp,72
    2eb4:	05c10613          	addi	a2,sp,92
    2eb8:	00900593          	li	a1,9
    2ebc:	00c00513          	li	a0,12
    2ec0:	fb9fe0ef          	jal	ra,1e78 <ROUND>
    2ec4:	04810693          	addi	a3,sp,72
    2ec8:	05c10613          	addi	a2,sp,92
    2ecc:	00900593          	li	a1,9
    2ed0:	00900513          	li	a0,9
    2ed4:	fa5fe0ef          	jal	ra,1e78 <ROUND>
    2ed8:	04810693          	addi	a3,sp,72
    2edc:	05c10613          	addi	a2,sp,92
    2ee0:	00c00593          	li	a1,12
    2ee4:	00600513          	li	a0,6
    2ee8:	f91fe0ef          	jal	ra,1e78 <ROUND>
    2eec:	04810693          	addi	a3,sp,72
    2ef0:	05c10613          	addi	a2,sp,92
    2ef4:	00c00593          	li	a1,12
    2ef8:	00300513          	li	a0,3
    2efc:	f7dfe0ef          	jal	ra,1e78 <ROUND>
    2f00:	04810693          	addi	a3,sp,72
    2f04:	05c10613          	addi	a2,sp,92
    2f08:	00900593          	li	a1,9
    2f0c:	00600513          	li	a0,6
    2f10:	f69fe0ef          	jal	ra,1e78 <ROUND>
    2f14:	04810693          	addi	a3,sp,72
    2f18:	05c10613          	addi	a2,sp,92
    2f1c:	00900593          	li	a1,9
    2f20:	00300513          	li	a0,3
    2f24:	f55fe0ef          	jal	ra,1e78 <ROUND>
    2f28:	04810693          	addi	a3,sp,72
    2f2c:	05c10613          	addi	a2,sp,92
    2f30:	00600593          	li	a1,6
    2f34:	00c00513          	li	a0,12
    2f38:	f41fe0ef          	jal	ra,1e78 <ROUND>
    2f3c:	04810693          	addi	a3,sp,72
    2f40:	05c10613          	addi	a2,sp,92
    2f44:	00600593          	li	a1,6
    2f48:	00900513          	li	a0,9
    2f4c:	f2dfe0ef          	jal	ra,1e78 <ROUND>
    2f50:	04810693          	addi	a3,sp,72
    2f54:	05c10613          	addi	a2,sp,92
    2f58:	00300593          	li	a1,3
    2f5c:	00c00513          	li	a0,12
    2f60:	f19fe0ef          	jal	ra,1e78 <ROUND>
    2f64:	04810693          	addi	a3,sp,72
    2f68:	05c10613          	addi	a2,sp,92
    2f6c:	00300593          	li	a1,3
    2f70:	00900513          	li	a0,9
    2f74:	f05fe0ef          	jal	ra,1e78 <ROUND>
  to_bit_interleaving(t0, U64BIG(*(u64*)c));
    2f78:	0004a683          	lw	a3,0(s1)
    2f7c:	0044a883          	lw	a7,4(s1)
    2f80:	00ff0837          	lui	a6,0xff0
    2f84:	0086d793          	srli	a5,a3,0x8
    2f88:	01889713          	slli	a4,a7,0x18
    2f8c:	00869513          	slli	a0,a3,0x8
    2f90:	00f767b3          	or	a5,a4,a5
    2f94:	00889593          	slli	a1,a7,0x8
    2f98:	0186d713          	srli	a4,a3,0x18
    2f9c:	00a87533          	and	a0,a6,a0
    2fa0:	01869693          	slli	a3,a3,0x18
    2fa4:	00e5e733          	or	a4,a1,a4
    2fa8:	00d56533          	or	a0,a0,a3
    2fac:	ff0005b7          	lui	a1,0xff000
    2fb0:	0127f6b3          	and	a3,a5,s2
    2fb4:	00d56533          	or	a0,a0,a3
    2fb8:	00f5f7b3          	and	a5,a1,a5
    2fbc:	0ff77693          	andi	a3,a4,255
    2fc0:	00e87733          	and	a4,a6,a4
    2fc4:	0088d613          	srli	a2,a7,0x8
    2fc8:	00e7e7b3          	or	a5,a5,a4
    2fcc:	0188d893          	srli	a7,a7,0x18
    2fd0:	01267633          	and	a2,a2,s2
    2fd4:	0117e7b3          	or	a5,a5,a7
    2fd8:	00c7e7b3          	or	a5,a5,a2
    2fdc:	00d56533          	or	a0,a0,a3
    2fe0:	0017d693          	srli	a3,a5,0x1
    2fe4:	00f6c6b3          	xor	a3,a3,a5
    2fe8:	0186f6b3          	and	a3,a3,s8
    2fec:	00d7c7b3          	xor	a5,a5,a3
    2ff0:	00169693          	slli	a3,a3,0x1
    2ff4:	00f6c7b3          	xor	a5,a3,a5
    2ff8:	0027d713          	srli	a4,a5,0x2
    2ffc:	00f74733          	xor	a4,a4,a5
    3000:	01977733          	and	a4,a4,s9
    3004:	00e7c7b3          	xor	a5,a5,a4
    3008:	00271693          	slli	a3,a4,0x2
    300c:	00f6c6b3          	xor	a3,a3,a5
    3010:	0046d613          	srli	a2,a3,0x4
    3014:	00d64633          	xor	a2,a2,a3
    3018:	01467633          	and	a2,a2,s4
    301c:	00c6c733          	xor	a4,a3,a2
    3020:	00461693          	slli	a3,a2,0x4
    3024:	00e6c6b3          	xor	a3,a3,a4
    3028:	0086d713          	srli	a4,a3,0x8
    302c:	00d74733          	xor	a4,a4,a3
    3030:	01277733          	and	a4,a4,s2
    3034:	00e6c6b3          	xor	a3,a3,a4
    3038:	00871713          	slli	a4,a4,0x8
    303c:	00d74733          	xor	a4,a4,a3
    3040:	00155693          	srli	a3,a0,0x1
    3044:	00a6c6b3          	xor	a3,a3,a0
    3048:	0186f6b3          	and	a3,a3,s8
    304c:	00d54533          	xor	a0,a0,a3
    3050:	00169793          	slli	a5,a3,0x1
    3054:	00a7c7b3          	xor	a5,a5,a0
    3058:	0027d693          	srli	a3,a5,0x2
    305c:	00f6c6b3          	xor	a3,a3,a5
    3060:	0196f6b3          	and	a3,a3,s9
    3064:	00d7c633          	xor	a2,a5,a3
    3068:	00269793          	slli	a5,a3,0x2
    306c:	00c7c7b3          	xor	a5,a5,a2
    3070:	0047d513          	srli	a0,a5,0x4
    3074:	00f54533          	xor	a0,a0,a5
    3078:	01457533          	and	a0,a0,s4
    307c:	00a7c633          	xor	a2,a5,a0
    3080:	00451793          	slli	a5,a0,0x4
    3084:	00c7c7b3          	xor	a5,a5,a2
    3088:	0087d613          	srli	a2,a5,0x8
    308c:	00f64633          	xor	a2,a2,a5
    3090:	01267633          	and	a2,a2,s2
    3094:	00c7c7b3          	xor	a5,a5,a2
    3098:	00861613          	slli	a2,a2,0x8
  to_bit_interleaving(t1, U64BIG(*(u64*)(c + 8)));
    309c:	00c4a303          	lw	t1,12(s1)
  to_bit_interleaving(t0, U64BIG(*(u64*)c));
    30a0:	00f64633          	xor	a2,a2,a5
  to_bit_interleaving(t1, U64BIG(*(u64*)(c + 8)));
    30a4:	0084a783          	lw	a5,8(s1)
    30a8:	01831693          	slli	a3,t1,0x18
    30ac:	00831513          	slli	a0,t1,0x8
    30b0:	0087de13          	srli	t3,a5,0x8
    30b4:	01c6ee33          	or	t3,a3,t3
    30b8:	0187d693          	srli	a3,a5,0x18
    30bc:	00d566b3          	or	a3,a0,a3
    30c0:	00879513          	slli	a0,a5,0x8
    30c4:	00a87533          	and	a0,a6,a0
    30c8:	01879793          	slli	a5,a5,0x18
    30cc:	00f56533          	or	a0,a0,a5
    30d0:	012e77b3          	and	a5,t3,s2
    30d4:	00f56533          	or	a0,a0,a5
    30d8:	01c5f5b3          	and	a1,a1,t3
    30dc:	0ff6f793          	andi	a5,a3,255
    30e0:	00d876b3          	and	a3,a6,a3
    30e4:	00835893          	srli	a7,t1,0x8
    30e8:	00d5e6b3          	or	a3,a1,a3
    30ec:	01835313          	srli	t1,t1,0x18
    30f0:	0128f8b3          	and	a7,a7,s2
    30f4:	0066e6b3          	or	a3,a3,t1
    30f8:	0116e6b3          	or	a3,a3,a7
    30fc:	00f56533          	or	a0,a0,a5
    3100:	0016d793          	srli	a5,a3,0x1
    3104:	00d7c7b3          	xor	a5,a5,a3
    3108:	0187f7b3          	and	a5,a5,s8
    310c:	00f6c5b3          	xor	a1,a3,a5
    3110:	00179693          	slli	a3,a5,0x1
    3114:	00b6c6b3          	xor	a3,a3,a1
    3118:	0026d793          	srli	a5,a3,0x2
    311c:	00d7c7b3          	xor	a5,a5,a3
    3120:	0197f7b3          	and	a5,a5,s9
    3124:	00f6c5b3          	xor	a1,a3,a5
    3128:	00279693          	slli	a3,a5,0x2
    312c:	00b6c6b3          	xor	a3,a3,a1
    3130:	0046d593          	srli	a1,a3,0x4
    3134:	00d5c5b3          	xor	a1,a1,a3
    3138:	0145f5b3          	and	a1,a1,s4
    313c:	00b6c7b3          	xor	a5,a3,a1
    3140:	00459693          	slli	a3,a1,0x4
    3144:	00f6c6b3          	xor	a3,a3,a5
    3148:	0086d793          	srli	a5,a3,0x8
    314c:	00d7c7b3          	xor	a5,a5,a3
    3150:	0127f7b3          	and	a5,a5,s2
    3154:	00f6c6b3          	xor	a3,a3,a5
    3158:	00879793          	slli	a5,a5,0x8
    315c:	00d7c7b3          	xor	a5,a5,a3
    3160:	00155693          	srli	a3,a0,0x1
    3164:	00a6c6b3          	xor	a3,a3,a0
    3168:	0186fc33          	and	s8,a3,s8
    316c:	01854533          	xor	a0,a0,s8
    3170:	001c1c13          	slli	s8,s8,0x1
    3174:	00ac4c33          	xor	s8,s8,a0
    3178:	002c5693          	srli	a3,s8,0x2
    317c:	0186c6b3          	xor	a3,a3,s8
    3180:	0196fcb3          	and	s9,a3,s9
    3184:	019c4c33          	xor	s8,s8,s9
    3188:	002c9c93          	slli	s9,s9,0x2
    318c:	018cccb3          	xor	s9,s9,s8
    3190:	004cd693          	srli	a3,s9,0x4
    3194:	0196c6b3          	xor	a3,a3,s9
    3198:	0146fa33          	and	s4,a3,s4
    319c:	014cccb3          	xor	s9,s9,s4
    31a0:	004a1a13          	slli	s4,s4,0x4
    31a4:	019a4a33          	xor	s4,s4,s9
    31a8:	008a5693          	srli	a3,s4,0x8
    31ac:	0146c6b3          	xor	a3,a3,s4
    31b0:	0126f933          	and	s2,a3,s2
  to_bit_interleaving(t0, U64BIG(*(u64*)c));
    31b4:	01061593          	slli	a1,a2,0x10
    31b8:	008776b3          	and	a3,a4,s0
    31bc:	00b6e6b3          	or	a3,a3,a1
  s_e[3] ^= K0.e;
    31c0:	00c12503          	lw	a0,12(sp)
    31c4:	06812583          	lw	a1,104(sp)
  to_bit_interleaving(t0, U64BIG(*(u64*)c));
    31c8:	01567633          	and	a2,a2,s5
    31cc:	01075713          	srli	a4,a4,0x10
  s_e[3] ^= K0.e;
    31d0:	00b545b3          	xor	a1,a0,a1
  if (((s_e[3] ^ t0.e) | (s_o[3] ^ t0.o) | (s_e[4] ^ t1.e) | (s_o[4] ^ t1.o)) != 0) {
    31d4:	00b6c6b3          	xor	a3,a3,a1
  to_bit_interleaving(t0, U64BIG(*(u64*)c));
    31d8:	00c76733          	or	a4,a4,a2
  s_o[3] ^= K0.o;
    31dc:	01012583          	lw	a1,16(sp)
    31e0:	05412603          	lw	a2,84(sp)
    31e4:	012a4a33          	xor	s4,s4,s2
  to_bit_interleaving(t1, U64BIG(*(u64*)(c + 8)));
    31e8:	00891913          	slli	s2,s2,0x8
  s_o[3] ^= K0.o;
    31ec:	00c5c633          	xor	a2,a1,a2
  to_bit_interleaving(t1, U64BIG(*(u64*)(c + 8)));
    31f0:	01494a33          	xor	s4,s2,s4
  if (((s_e[3] ^ t0.e) | (s_o[3] ^ t0.o) | (s_e[4] ^ t1.e) | (s_o[4] ^ t1.o)) != 0) {
    31f4:	00c74733          	xor	a4,a4,a2
    31f8:	00e6e733          	or	a4,a3,a4
  to_bit_interleaving(t1, U64BIG(*(u64*)(c + 8)));
    31fc:	0087f433          	and	s0,a5,s0
    3200:	010a1693          	slli	a3,s4,0x10
    3204:	00d46433          	or	s0,s0,a3
  s_e[4] ^= K1.e;
    3208:	01412603          	lw	a2,20(sp)
    320c:	06c12683          	lw	a3,108(sp)
  to_bit_interleaving(t1, U64BIG(*(u64*)(c + 8)));
    3210:	0107d793          	srli	a5,a5,0x10
    3214:	015a7a33          	and	s4,s4,s5
  s_e[4] ^= K1.e;
    3218:	00d646b3          	xor	a3,a2,a3
  if (((s_e[3] ^ t0.e) | (s_o[3] ^ t0.o) | (s_e[4] ^ t1.e) | (s_o[4] ^ t1.o)) != 0) {
    321c:	00d44433          	xor	s0,s0,a3
    3220:	00876433          	or	s0,a4,s0
  to_bit_interleaving(t1, U64BIG(*(u64*)(c + 8)));
    3224:	0147ea33          	or	s4,a5,s4
  s_o[4] ^= K1.o;
    3228:	01812703          	lw	a4,24(sp)
    322c:	05812783          	lw	a5,88(sp)
    3230:	00f747b3          	xor	a5,a4,a5
  if (((s_e[3] ^ t0.e) | (s_o[3] ^ t0.o) | (s_e[4] ^ t1.e) | (s_o[4] ^ t1.o)) != 0) {
    3234:	00fa4a33          	xor	s4,s4,a5
    3238:	01446a33          	or	s4,s0,s4
    323c:	000a0463          	beqz	s4,3244 <crypto_aead_decrypt+0x1068>
    3240:	80cff06f          	j	224c <crypto_aead_decrypt+0x70>
  return 0;
    3244:	00000513          	li	a0,0
    3248:	81cff06f          	j	2264 <crypto_aead_decrypt+0x88>
      to_bit_interleaving(t0, U64BIG(*(u64*)ad));
    324c:	00082683          	lw	a3,0(a6) # ff0000 <_stack_start+0xfd9df8>
    3250:	00482f03          	lw	t5,4(a6)
    3254:	00ff0eb7          	lui	t4,0xff0
    3258:	0186df93          	srli	t6,a3,0x18
    325c:	008f1593          	slli	a1,t5,0x8
    3260:	018f1613          	slli	a2,t5,0x18
    3264:	01f5efb3          	or	t6,a1,t6
    3268:	0086d513          	srli	a0,a3,0x8
    326c:	00869593          	slli	a1,a3,0x8
    3270:	00a66533          	or	a0,a2,a0
    3274:	00bef5b3          	and	a1,t4,a1
    3278:	01869693          	slli	a3,a3,0x18
    327c:	00d5e5b3          	or	a1,a1,a3
    3280:	01a576b3          	and	a3,a0,s10
    3284:	00d5e5b3          	or	a1,a1,a3
    3288:	0ffff693          	andi	a3,t6,255
    328c:	00d5e5b3          	or	a1,a1,a3
    3290:	ff0006b7          	lui	a3,0xff000
    3294:	01feffb3          	and	t6,t4,t6
    3298:	00a6f533          	and	a0,a3,a0
    329c:	008f5613          	srli	a2,t5,0x8
    32a0:	01f56533          	or	a0,a0,t6
    32a4:	018f5f13          	srli	t5,t5,0x18
    32a8:	01e56533          	or	a0,a0,t5
    32ac:	01a67633          	and	a2,a2,s10
    32b0:	00c56533          	or	a0,a0,a2
    32b4:	00155613          	srli	a2,a0,0x1
    32b8:	00a64633          	xor	a2,a2,a0
    32bc:	01367633          	and	a2,a2,s3
    32c0:	00c54f33          	xor	t5,a0,a2
    32c4:	00161513          	slli	a0,a2,0x1
    32c8:	01e54533          	xor	a0,a0,t5
    32cc:	00255613          	srli	a2,a0,0x2
    32d0:	00a64633          	xor	a2,a2,a0
    32d4:	01667633          	and	a2,a2,s6
    32d8:	00c54f33          	xor	t5,a0,a2
    32dc:	00261513          	slli	a0,a2,0x2
    32e0:	01e54533          	xor	a0,a0,t5
    32e4:	00455f13          	srli	t5,a0,0x4
    32e8:	00af4f33          	xor	t5,t5,a0
    32ec:	017f7f33          	and	t5,t5,s7
    32f0:	01e54633          	xor	a2,a0,t5
    32f4:	004f1513          	slli	a0,t5,0x4
    32f8:	00c54533          	xor	a0,a0,a2
    32fc:	00855613          	srli	a2,a0,0x8
    3300:	00a64633          	xor	a2,a2,a0
    3304:	01a67633          	and	a2,a2,s10
    3308:	00c54533          	xor	a0,a0,a2
    330c:	00861613          	slli	a2,a2,0x8
    3310:	00a64633          	xor	a2,a2,a0
    3314:	0015d513          	srli	a0,a1,0x1
    3318:	00b54533          	xor	a0,a0,a1
    331c:	01357533          	and	a0,a0,s3
    3320:	00a5cf33          	xor	t5,a1,a0
    3324:	00151593          	slli	a1,a0,0x1
    3328:	01e5c5b3          	xor	a1,a1,t5
    332c:	0025d513          	srli	a0,a1,0x2
    3330:	00b54533          	xor	a0,a0,a1
    3334:	01657533          	and	a0,a0,s6
    3338:	00a5cf33          	xor	t5,a1,a0
    333c:	00251593          	slli	a1,a0,0x2
    3340:	01e5c5b3          	xor	a1,a1,t5
    3344:	0045d513          	srli	a0,a1,0x4
    3348:	00b54533          	xor	a0,a0,a1
    334c:	01757533          	and	a0,a0,s7
    3350:	00a5cf33          	xor	t5,a1,a0
    3354:	00451593          	slli	a1,a0,0x4
    3358:	01e5c5b3          	xor	a1,a1,t5
    335c:	0085d513          	srli	a0,a1,0x8
    3360:	00b54533          	xor	a0,a0,a1
    3364:	01a57533          	and	a0,a0,s10
    3368:	00a5c5b3          	xor	a1,a1,a0
    336c:	000107b7          	lui	a5,0x10
    3370:	00851513          	slli	a0,a0,0x8
    3374:	ffff02b7          	lui	t0,0xffff0
    3378:	00b54533          	xor	a0,a0,a1
    337c:	fff78593          	addi	a1,a5,-1 # ffff <_bss_end+0xbd8f>
    3380:	00b67f33          	and	t5,a2,a1
    3384:	01051f93          	slli	t6,a0,0x10
    3388:	01065613          	srli	a2,a2,0x10
    338c:	00557533          	and	a0,a0,t0
    3390:	00a66633          	or	a2,a2,a0
      s_o[0] ^= t0.o;
    3394:	01864c33          	xor	s8,a2,s8
      to_bit_interleaving(t1, U64BIG(*(u64*)(ad + 8)));
    3398:	00c82503          	lw	a0,12(a6)
    339c:	00882603          	lw	a2,8(a6)
      to_bit_interleaving(t0, U64BIG(*(u64*)ad));
    33a0:	01ff6f33          	or	t5,t5,t6
      s_e[0] ^= t0.e;
    33a4:	019f4cb3          	xor	s9,t5,s9
      to_bit_interleaving(t1, U64BIG(*(u64*)(ad + 8)));
    33a8:	00865f93          	srli	t6,a2,0x8
    33ac:	01851f13          	slli	t5,a0,0x18
    33b0:	01ff6fb3          	or	t6,t5,t6
    33b4:	00851093          	slli	ra,a0,0x8
    33b8:	01865f13          	srli	t5,a2,0x18
    33bc:	01e0ef33          	or	t5,ra,t5
      s_o[0] ^= t0.o;
    33c0:	05812423          	sw	s8,72(sp)
      to_bit_interleaving(t1, U64BIG(*(u64*)(ad + 8)));
    33c4:	00861c13          	slli	s8,a2,0x8
    33c8:	01f6f6b3          	and	a3,a3,t6
    33cc:	018ef0b3          	and	ra,t4,s8
    33d0:	01eefeb3          	and	t4,t4,t5
    33d4:	01d6e6b3          	or	a3,a3,t4
    33d8:	00855393          	srli	t2,a0,0x8
    33dc:	01861613          	slli	a2,a2,0x18
    33e0:	01855513          	srli	a0,a0,0x18
    33e4:	00c0ec33          	or	s8,ra,a2
    33e8:	00a6e533          	or	a0,a3,a0
    33ec:	01aff633          	and	a2,t6,s10
    33f0:	01a3f3b3          	and	t2,t2,s10
    33f4:	0fff7093          	andi	ra,t5,255
    33f8:	00756533          	or	a0,a0,t2
    33fc:	00cc6633          	or	a2,s8,a2
    3400:	00166633          	or	a2,a2,ra
    3404:	00155093          	srli	ra,a0,0x1
    3408:	00a0c0b3          	xor	ra,ra,a0
    340c:	0130f0b3          	and	ra,ra,s3
    3410:	001543b3          	xor	t2,a0,ra
    3414:	00109513          	slli	a0,ra,0x1
    3418:	00754533          	xor	a0,a0,t2
    341c:	00255693          	srli	a3,a0,0x2
    3420:	00a6c6b3          	xor	a3,a3,a0
    3424:	0166f6b3          	and	a3,a3,s6
    3428:	00d543b3          	xor	t2,a0,a3
    342c:	00269513          	slli	a0,a3,0x2
    3430:	00754533          	xor	a0,a0,t2
    3434:	00455e93          	srli	t4,a0,0x4
    3438:	00aeceb3          	xor	t4,t4,a0
    343c:	017efeb3          	and	t4,t4,s7
    3440:	01d546b3          	xor	a3,a0,t4
    3444:	004e9513          	slli	a0,t4,0x4
    3448:	00d54533          	xor	a0,a0,a3
    344c:	00855693          	srli	a3,a0,0x8
    3450:	00a6c6b3          	xor	a3,a3,a0
    3454:	01a6f6b3          	and	a3,a3,s10
    3458:	00d54533          	xor	a0,a0,a3
    345c:	00869693          	slli	a3,a3,0x8
    3460:	00a6c6b3          	xor	a3,a3,a0
    3464:	00165513          	srli	a0,a2,0x1
    3468:	00c54533          	xor	a0,a0,a2
    346c:	01357533          	and	a0,a0,s3
    3470:	00a64633          	xor	a2,a2,a0
    3474:	00151513          	slli	a0,a0,0x1
    3478:	00c54633          	xor	a2,a0,a2
    347c:	00265513          	srli	a0,a2,0x2
    3480:	00c54533          	xor	a0,a0,a2
    3484:	01657533          	and	a0,a0,s6
    3488:	00a640b3          	xor	ra,a2,a0
    348c:	00251613          	slli	a2,a0,0x2
    3490:	00164633          	xor	a2,a2,ra
    3494:	00465513          	srli	a0,a2,0x4
    3498:	00c54533          	xor	a0,a0,a2
    349c:	01757533          	and	a0,a0,s7
    34a0:	00a64eb3          	xor	t4,a2,a0
    34a4:	00451613          	slli	a2,a0,0x4
    34a8:	01d64633          	xor	a2,a2,t4
    34ac:	00865513          	srli	a0,a2,0x8
    34b0:	00c54533          	xor	a0,a0,a2
    34b4:	01a57533          	and	a0,a0,s10
    34b8:	00a64633          	xor	a2,a2,a0
    34bc:	00851513          	slli	a0,a0,0x8
      s_e[1] ^= t1.e;
    34c0:	02012783          	lw	a5,32(sp)
      to_bit_interleaving(t1, U64BIG(*(u64*)(ad + 8)));
    34c4:	00c54633          	xor	a2,a0,a2
    34c8:	01061513          	slli	a0,a2,0x10
    34cc:	00b6f5b3          	and	a1,a3,a1
    34d0:	00a5e5b3          	or	a1,a1,a0
      s_e[1] ^= t1.e;
    34d4:	00f5c7b3          	xor	a5,a1,a5
    34d8:	06f12023          	sw	a5,96(sp)
      s_o[1] ^= t1.o;
    34dc:	02412783          	lw	a5,36(sp)
      to_bit_interleaving(t1, U64BIG(*(u64*)(ad + 8)));
    34e0:	00567633          	and	a2,a2,t0
    34e4:	0106d693          	srli	a3,a3,0x10
    34e8:	00c6e633          	or	a2,a3,a2
      s_o[1] ^= t1.o;
    34ec:	00f647b3          	xor	a5,a2,a5
      P8();
    34f0:	04810693          	addi	a3,sp,72
    34f4:	05c10613          	addi	a2,sp,92
    34f8:	00c00593          	li	a1,12
    34fc:	00600513          	li	a0,6
    3500:	03112e23          	sw	a7,60(sp)
    3504:	03c12c23          	sw	t3,56(sp)
      to_bit_interleaving(t1, U64BIG(*(u64*)(ad + 8)));
    3508:	03012a23          	sw	a6,52(sp)
      s_o[1] ^= t1.o;
    350c:	04f12623          	sw	a5,76(sp)
      s_e[0] ^= t0.e;
    3510:	05912e23          	sw	s9,92(sp)
      P8();
    3514:	965fe0ef          	jal	ra,1e78 <ROUND>
    3518:	04810693          	addi	a3,sp,72
    351c:	05c10613          	addi	a2,sp,92
    3520:	00c00593          	li	a1,12
    3524:	00300513          	li	a0,3
    3528:	951fe0ef          	jal	ra,1e78 <ROUND>
    352c:	04810693          	addi	a3,sp,72
    3530:	05c10613          	addi	a2,sp,92
    3534:	00900593          	li	a1,9
    3538:	00600513          	li	a0,6
    353c:	93dfe0ef          	jal	ra,1e78 <ROUND>
    3540:	04810693          	addi	a3,sp,72
    3544:	05c10613          	addi	a2,sp,92
    3548:	00900593          	li	a1,9
    354c:	00300513          	li	a0,3
    3550:	929fe0ef          	jal	ra,1e78 <ROUND>
    3554:	04810693          	addi	a3,sp,72
    3558:	05c10613          	addi	a2,sp,92
    355c:	00600593          	li	a1,6
    3560:	00c00513          	li	a0,12
    3564:	915fe0ef          	jal	ra,1e78 <ROUND>
    3568:	04810693          	addi	a3,sp,72
    356c:	05c10613          	addi	a2,sp,92
    3570:	00600593          	li	a1,6
    3574:	00900513          	li	a0,9
    3578:	901fe0ef          	jal	ra,1e78 <ROUND>
    357c:	04810693          	addi	a3,sp,72
    3580:	05c10613          	addi	a2,sp,92
    3584:	00300593          	li	a1,3
    3588:	00c00513          	li	a0,12
    358c:	8edfe0ef          	jal	ra,1e78 <ROUND>
    3590:	04810693          	addi	a3,sp,72
    3594:	05c10613          	addi	a2,sp,92
    3598:	00300593          	li	a1,3
    359c:	00900513          	li	a0,9
    35a0:	8d9fe0ef          	jal	ra,1e78 <ROUND>
      adlen -= RATE;
    35a4:	03812e03          	lw	t3,56(sp)
    35a8:	03c12883          	lw	a7,60(sp)
      ad += RATE;
    35ac:	03412803          	lw	a6,52(sp)
      adlen -= RATE;
    35b0:	ff0e0693          	addi	a3,t3,-16
    35b4:	01c6b633          	sltu	a2,a3,t3
    35b8:	fff88893          	addi	a7,a7,-1
    35bc:	00068e13          	mv	t3,a3
    35c0:	011608b3          	add	a7,a2,a7
      ad += RATE;
    35c4:	01080813          	addi	a6,a6,16
      s_e[1] ^= t1.e;
    35c8:	06012783          	lw	a5,96(sp)
      s_e[0] ^= t0.e;
    35cc:	05c12c83          	lw	s9,92(sp)
      s_o[0] ^= t0.o;
    35d0:	04812c03          	lw	s8,72(sp)
      s_e[1] ^= t1.e;
    35d4:	02f12023          	sw	a5,32(sp)
      s_o[1] ^= t1.o;
    35d8:	04c12783          	lw	a5,76(sp)
    35dc:	02f12223          	sw	a5,36(sp)
    while (adlen >= RATE) {
    35e0:	c60896e3          	bnez	a7,324c <crypto_aead_decrypt+0x1070>
    35e4:	00f00693          	li	a3,15
    35e8:	c7c6e2e3          	bltu	a3,t3,324c <crypto_aead_decrypt+0x1070>
    35ec:	01ca9793          	slli	a5,s5,0x1c
    35f0:	004dd513          	srli	a0,s11,0x4
    35f4:	00a7e533          	or	a0,a5,a0
    35f8:	00451793          	slli	a5,a0,0x4
    35fc:	004ad593          	srli	a1,s5,0x4
    3600:	ff000613          	li	a2,-16
    3604:	fff00693          	li	a3,-1
    3608:	02f12a23          	sw	a5,52(sp)
    360c:	2c5000ef          	jal	ra,40d0 <__muldi3>
    3610:	01b50b33          	add	s6,a0,s11
    3614:	015589b3          	add	s3,a1,s5
    3618:	00ab3533          	sltu	a0,s6,a0
    361c:	013507b3          	add	a5,a0,s3
    3620:	02f12c23          	sw	a5,56(sp)
    for (i = 0; i < adlen; ++i, ++ad)
    3624:	00000b93          	li	s7,0
    tmp1 = 0;
    3628:	00000d93          	li	s11,0
    362c:	00000d13          	li	s10,0
    tmp0 = 0;
    3630:	00000a93          	li	s5,0
    3634:	00000993          	li	s3,0
    for (i = 0; i < adlen; ++i, ++ad)
    3638:	03812783          	lw	a5,56(sp)
    363c:	2e079063          	bnez	a5,391c <crypto_aead_decrypt+0x1740>
    3640:	2d6bee63          	bltu	s7,s6,391c <crypto_aead_decrypt+0x1740>
    if (adlen < 8)
    3644:	00700613          	li	a2,7
    3648:	33666a63          	bltu	a2,s6,397c <crypto_aead_decrypt+0x17a0>
      tmp0 ^= INS_BYTE64(0x80, adlen);
    364c:	41660633          	sub	a2,a2,s6
    3650:	00361613          	slli	a2,a2,0x3
    3654:	08000513          	li	a0,128
    3658:	00000593          	li	a1,0
    365c:	24b000ef          	jal	ra,40a6 <__ashldi3>
    3660:	00aacab3          	xor	s5,s5,a0
    3664:	00b9c9b3          	xor	s3,s3,a1
    to_bit_interleaving(t0, tmp0);
    3668:	001ad613          	srli	a2,s5,0x1
    366c:	222228b7          	lui	a7,0x22222
    3670:	22288713          	addi	a4,a7,546 # 22222222 <_stack_start+0x2220c01a>
    3674:	01564633          	xor	a2,a2,s5
    3678:	00e67633          	and	a2,a2,a4
    367c:	00cac7b3          	xor	a5,s5,a2
    3680:	00161693          	slli	a3,a2,0x1
    3684:	00f6c6b3          	xor	a3,a3,a5
    3688:	0026d613          	srli	a2,a3,0x2
    368c:	00d647b3          	xor	a5,a2,a3
    3690:	0c0c1637          	lui	a2,0xc0c1
    3694:	c0c60e93          	addi	t4,a2,-1012 # c0c0c0c <_stack_start+0xc0aaa04>
    3698:	01d7f633          	and	a2,a5,t4
    369c:	00c6c6b3          	xor	a3,a3,a2
    36a0:	00261793          	slli	a5,a2,0x2
    36a4:	00d7c7b3          	xor	a5,a5,a3
    36a8:	0047d613          	srli	a2,a5,0x4
    36ac:	00f006b7          	lui	a3,0xf00
    36b0:	0f068313          	addi	t1,a3,240 # f000f0 <_stack_start+0xee9ee8>
    36b4:	00f64633          	xor	a2,a2,a5
    36b8:	00667633          	and	a2,a2,t1
    36bc:	00c7c7b3          	xor	a5,a5,a2
    36c0:	00461693          	slli	a3,a2,0x4
    36c4:	00f6c6b3          	xor	a3,a3,a5
    36c8:	0086d793          	srli	a5,a3,0x8
    36cc:	000105b7          	lui	a1,0x10
    36d0:	f0058513          	addi	a0,a1,-256 # ff00 <_bss_end+0xbc90>
    36d4:	00d7c7b3          	xor	a5,a5,a3
    36d8:	0019d613          	srli	a2,s3,0x1
    36dc:	00a7f7b3          	and	a5,a5,a0
    36e0:	01364633          	xor	a2,a2,s3
    36e4:	00e67633          	and	a2,a2,a4
    36e8:	00f6c6b3          	xor	a3,a3,a5
    36ec:	00879793          	slli	a5,a5,0x8
    36f0:	00c9c833          	xor	a6,s3,a2
    36f4:	00d7c7b3          	xor	a5,a5,a3
    36f8:	00161693          	slli	a3,a2,0x1
    36fc:	0106c6b3          	xor	a3,a3,a6
    3700:	0026d613          	srli	a2,a3,0x2
    3704:	00d64633          	xor	a2,a2,a3
    3708:	01d67633          	and	a2,a2,t4
    370c:	00c6c833          	xor	a6,a3,a2
    3710:	00261693          	slli	a3,a2,0x2
    3714:	0106c6b3          	xor	a3,a3,a6
    3718:	0046d613          	srli	a2,a3,0x4
    371c:	00d64633          	xor	a2,a2,a3
    3720:	00667633          	and	a2,a2,t1
    3724:	00c6c833          	xor	a6,a3,a2
    3728:	00461693          	slli	a3,a2,0x4
    372c:	0106c6b3          	xor	a3,a3,a6
    3730:	0086d613          	srli	a2,a3,0x8
    3734:	00d64633          	xor	a2,a2,a3
    3738:	00a67633          	and	a2,a2,a0
    373c:	00c6c6b3          	xor	a3,a3,a2
    3740:	00861613          	slli	a2,a2,0x8
    3744:	00d646b3          	xor	a3,a2,a3
    3748:	fff58593          	addi	a1,a1,-1
    374c:	00b7f633          	and	a2,a5,a1
    3750:	01069813          	slli	a6,a3,0x10
    3754:	01066633          	or	a2,a2,a6
    3758:	ffff0837          	lui	a6,0xffff0
    375c:	0106f6b3          	and	a3,a3,a6
    3760:	0107d793          	srli	a5,a5,0x10
    3764:	00d7e6b3          	or	a3,a5,a3
    to_bit_interleaving(t1, tmp1);
    3768:	001dd793          	srli	a5,s11,0x1
    376c:	01b7c7b3          	xor	a5,a5,s11
    3770:	00e7f7b3          	and	a5,a5,a4
    3774:	00fdcf33          	xor	t5,s11,a5
    s_o[0] ^= t0.o;
    3778:	0186cc33          	xor	s8,a3,s8
    to_bit_interleaving(t1, tmp1);
    377c:	00179693          	slli	a3,a5,0x1
    3780:	01e6c6b3          	xor	a3,a3,t5
    3784:	0026d793          	srli	a5,a3,0x2
    3788:	00d7c7b3          	xor	a5,a5,a3
    378c:	01d7f7b3          	and	a5,a5,t4
    s_e[0] ^= t0.e;
    3790:	01964cb3          	xor	s9,a2,s9
    3794:	00f6c633          	xor	a2,a3,a5
    to_bit_interleaving(t1, tmp1);
    3798:	00279693          	slli	a3,a5,0x2
    379c:	00c6c6b3          	xor	a3,a3,a2
    37a0:	001d5893          	srli	a7,s10,0x1
    37a4:	0046d613          	srli	a2,a3,0x4
    37a8:	01a8c8b3          	xor	a7,a7,s10
    37ac:	00e8f8b3          	and	a7,a7,a4
    37b0:	00d64633          	xor	a2,a2,a3
    37b4:	00667633          	and	a2,a2,t1
    37b8:	011d4e33          	xor	t3,s10,a7
    37bc:	00189713          	slli	a4,a7,0x1
    37c0:	01c74733          	xor	a4,a4,t3
    37c4:	00c6c7b3          	xor	a5,a3,a2
    37c8:	00461693          	slli	a3,a2,0x4
    37cc:	00f6c6b3          	xor	a3,a3,a5
    37d0:	00275613          	srli	a2,a4,0x2
    37d4:	0086d793          	srli	a5,a3,0x8
    37d8:	00e64633          	xor	a2,a2,a4
    37dc:	01d67633          	and	a2,a2,t4
    37e0:	00d7c7b3          	xor	a5,a5,a3
    37e4:	00c748b3          	xor	a7,a4,a2
    37e8:	00a7f7b3          	and	a5,a5,a0
    37ec:	00261713          	slli	a4,a2,0x2
    37f0:	01174733          	xor	a4,a4,a7
    37f4:	00f6c6b3          	xor	a3,a3,a5
    37f8:	00879793          	slli	a5,a5,0x8
    37fc:	00d7c7b3          	xor	a5,a5,a3
    3800:	00475693          	srli	a3,a4,0x4
    3804:	00e6c6b3          	xor	a3,a3,a4
    3808:	0066f6b3          	and	a3,a3,t1
    380c:	00d74733          	xor	a4,a4,a3
    3810:	00469693          	slli	a3,a3,0x4
    3814:	00e6c733          	xor	a4,a3,a4
    3818:	00875693          	srli	a3,a4,0x8
    381c:	00e6c6b3          	xor	a3,a3,a4
    3820:	00a6f533          	and	a0,a3,a0
    3824:	00a74733          	xor	a4,a4,a0
    3828:	00851513          	slli	a0,a0,0x8
    382c:	00e54733          	xor	a4,a0,a4
    3830:	01071693          	slli	a3,a4,0x10
    3834:	00b7f5b3          	and	a1,a5,a1
    3838:	01077733          	and	a4,a4,a6
    383c:	0107d793          	srli	a5,a5,0x10
    3840:	00e7e733          	or	a4,a5,a4
    3844:	00d5e5b3          	or	a1,a1,a3
    s_o[1] ^= t1.o;
    3848:	02412783          	lw	a5,36(sp)
    s_e[1] ^= t1.e;
    384c:	02012683          	lw	a3,32(sp)
    P8();
    3850:	05c10613          	addi	a2,sp,92
    s_o[1] ^= t1.o;
    3854:	00f74b33          	xor	s6,a4,a5
    s_e[1] ^= t1.e;
    3858:	00d5cbb3          	xor	s7,a1,a3
    P8();
    385c:	00600513          	li	a0,6
    3860:	04810693          	addi	a3,sp,72
    3864:	00c00593          	li	a1,12
    s_e[0] ^= t0.e;
    3868:	05912e23          	sw	s9,92(sp)
    s_o[0] ^= t0.o;
    386c:	05812423          	sw	s8,72(sp)
    s_e[1] ^= t1.e;
    3870:	07712023          	sw	s7,96(sp)
    s_o[1] ^= t1.o;
    3874:	05612623          	sw	s6,76(sp)
    P8();
    3878:	e00fe0ef          	jal	ra,1e78 <ROUND>
    387c:	04810693          	addi	a3,sp,72
    3880:	05c10613          	addi	a2,sp,92
    3884:	00c00593          	li	a1,12
    3888:	00300513          	li	a0,3
    388c:	decfe0ef          	jal	ra,1e78 <ROUND>
    3890:	04810693          	addi	a3,sp,72
    3894:	05c10613          	addi	a2,sp,92
    3898:	00900593          	li	a1,9
    389c:	00600513          	li	a0,6
    38a0:	dd8fe0ef          	jal	ra,1e78 <ROUND>
    38a4:	04810693          	addi	a3,sp,72
    38a8:	05c10613          	addi	a2,sp,92
    38ac:	00900593          	li	a1,9
    38b0:	00300513          	li	a0,3
    38b4:	dc4fe0ef          	jal	ra,1e78 <ROUND>
    38b8:	04810693          	addi	a3,sp,72
    38bc:	05c10613          	addi	a2,sp,92
    38c0:	00600593          	li	a1,6
    38c4:	00c00513          	li	a0,12
    38c8:	db0fe0ef          	jal	ra,1e78 <ROUND>
    38cc:	04810693          	addi	a3,sp,72
    38d0:	05c10613          	addi	a2,sp,92
    38d4:	00600593          	li	a1,6
    38d8:	00900513          	li	a0,9
    38dc:	d9cfe0ef          	jal	ra,1e78 <ROUND>
    38e0:	04810693          	addi	a3,sp,72
    38e4:	05c10613          	addi	a2,sp,92
    38e8:	00300593          	li	a1,3
    38ec:	00c00513          	li	a0,12
    38f0:	d88fe0ef          	jal	ra,1e78 <ROUND>
    38f4:	04810693          	addi	a3,sp,72
    38f8:	05c10613          	addi	a2,sp,92
    38fc:	00300593          	li	a1,3
    3900:	00900513          	li	a0,9
    3904:	d74fe0ef          	jal	ra,1e78 <ROUND>
    3908:	850ff06f          	j	2958 <crypto_aead_decrypt+0x77c>
    390c:	03012803          	lw	a6,48(sp)
    3910:	000d8e13          	mv	t3,s11
    3914:	000a8893          	mv	a7,s5
    3918:	cb1ff06f          	j	35c8 <crypto_aead_decrypt+0x13ec>
        tmp0 ^= INS_BYTE64(*ad, i);
    391c:	03412783          	lw	a5,52(sp)
    3920:	00fb8733          	add	a4,s7,a5
    3924:	03012783          	lw	a5,48(sp)
    3928:	00e78733          	add	a4,a5,a4
      if (i < 8)
    392c:	00700793          	li	a5,7
        tmp0 ^= INS_BYTE64(*ad, i);
    3930:	00074503          	lbu	a0,0(a4)
      if (i < 8)
    3934:	0377e463          	bltu	a5,s7,395c <crypto_aead_decrypt+0x1780>
        tmp0 ^= INS_BYTE64(*ad, i);
    3938:	41700633          	neg	a2,s7
    393c:	00361613          	slli	a2,a2,0x3
    3940:	03860613          	addi	a2,a2,56
    3944:	00000593          	li	a1,0
    3948:	75e000ef          	jal	ra,40a6 <__ashldi3>
    394c:	00aacab3          	xor	s5,s5,a0
    3950:	00b9c9b3          	xor	s3,s3,a1
    for (i = 0; i < adlen; ++i, ++ad)
    3954:	001b8b93          	addi	s7,s7,1 # ffff0001 <_stack_start+0xfffd9df9>
    3958:	ce1ff06f          	j	3638 <crypto_aead_decrypt+0x145c>
        tmp1 ^= INS_BYTE64(*ad, i % 8);
    395c:	fffbc613          	not	a2,s7
    3960:	00767613          	andi	a2,a2,7
    3964:	00361613          	slli	a2,a2,0x3
    3968:	00000593          	li	a1,0
    396c:	73a000ef          	jal	ra,40a6 <__ashldi3>
    3970:	00adcdb3          	xor	s11,s11,a0
    3974:	00bd4d33          	xor	s10,s10,a1
    3978:	fddff06f          	j	3954 <crypto_aead_decrypt+0x1778>
      tmp1 ^= INS_BYTE64(0x80, adlen % 8);
    397c:	fffb4613          	not	a2,s6
    3980:	00767613          	andi	a2,a2,7
    3984:	00361613          	slli	a2,a2,0x3
    3988:	08000513          	li	a0,128
    398c:	00000593          	li	a1,0
    3990:	716000ef          	jal	ra,40a6 <__ashldi3>
    3994:	00adcdb3          	xor	s11,s11,a0
    3998:	00bd4d33          	xor	s10,s10,a1
    399c:	ccdff06f          	j	3668 <crypto_aead_decrypt+0x148c>
    *(u64*)m = U64BIG(tmp0) ^ *(u64*)c;
    39a0:	00ff0537          	lui	a0,0xff0
    39a4:	00871793          	slli	a5,a4,0x8
    39a8:	01871693          	slli	a3,a4,0x18
    39ac:	00f577b3          	and	a5,a0,a5
    39b0:	00f6e7b3          	or	a5,a3,a5
    39b4:	01829093          	slli	ra,t0,0x18
    39b8:	00875693          	srli	a3,a4,0x8
    39bc:	f00f0593          	addi	a1,t5,-256
    39c0:	0016e0b3          	or	ra,a3,ra
    39c4:	01875713          	srli	a4,a4,0x18
    39c8:	00829f93          	slli	t6,t0,0x8
    39cc:	00b0f6b3          	and	a3,ra,a1
    39d0:	01f76fb3          	or	t6,a4,t6
    39d4:	00d7e7b3          	or	a5,a5,a3
    39d8:	0ffff713          	andi	a4,t6,255
    39dc:	00e7e733          	or	a4,a5,a4
    39e0:	ff0007b7          	lui	a5,0xff000
    39e4:	0182d993          	srli	s3,t0,0x18
    39e8:	0017f0b3          	and	ra,a5,ra
    39ec:	01f57fb3          	and	t6,a0,t6
    39f0:	0019e0b3          	or	ra,s3,ra
    39f4:	0082d293          	srli	t0,t0,0x8
    39f8:	00b2f2b3          	and	t0,t0,a1
    39fc:	01f0e0b3          	or	ra,ra,t6
    3a00:	0050e0b3          	or	ra,ra,t0
    3a04:	000c2283          	lw	t0,0(s8)
    *(u64*)(m + 8) = U64BIG(tmp1) ^ *(u64*)(c + 8);
    3a08:	00861f93          	slli	t6,a2,0x8
    3a0c:	01f57fb3          	and	t6,a0,t6
    *(u64*)m = U64BIG(tmp0) ^ *(u64*)c;
    3a10:	0012c0b3          	xor	ra,t0,ra
    3a14:	00182023          	sw	ra,0(a6) # ffff0000 <_stack_start+0xfffd9df8>
    3a18:	004c2683          	lw	a3,4(s8)
    *(u64*)(m + 8) = U64BIG(tmp1) ^ *(u64*)(c + 8);
    3a1c:	0183d293          	srli	t0,t2,0x18
    3a20:	03012023          	sw	a6,32(sp)
    *(u64*)m = U64BIG(tmp0) ^ *(u64*)c;
    3a24:	00e6c733          	xor	a4,a3,a4
    3a28:	00e82223          	sw	a4,4(a6)
    *(u64*)(m + 8) = U64BIG(tmp1) ^ *(u64*)(c + 8);
    3a2c:	01861713          	slli	a4,a2,0x18
    3a30:	00865693          	srli	a3,a2,0x8
    3a34:	01f76fb3          	or	t6,a4,t6
    3a38:	01839713          	slli	a4,t2,0x18
    3a3c:	00e6e733          	or	a4,a3,a4
    3a40:	00b776b3          	and	a3,a4,a1
    3a44:	00dfefb3          	or	t6,t6,a3
    3a48:	01865613          	srli	a2,a2,0x18
    3a4c:	00839693          	slli	a3,t2,0x8
    3a50:	00d666b3          	or	a3,a2,a3
    3a54:	00e7f733          	and	a4,a5,a4
    3a58:	0ff6f613          	andi	a2,a3,255
    3a5c:	00e2e733          	or	a4,t0,a4
    3a60:	00d576b3          	and	a3,a0,a3
    3a64:	0083d393          	srli	t2,t2,0x8
    3a68:	00b3f3b3          	and	t2,t2,a1
    3a6c:	00d76733          	or	a4,a4,a3
    3a70:	00776733          	or	a4,a4,t2
    3a74:	008c2383          	lw	t2,8(s8)
    3a78:	00cfefb3          	or	t6,t6,a2
    c += RATE;
    3a7c:	010c0c13          	addi	s8,s8,16
    *(u64*)(m + 8) = U64BIG(tmp1) ^ *(u64*)(c + 8);
    3a80:	00e3c733          	xor	a4,t2,a4
    3a84:	00e82423          	sw	a4,8(a6)
    3a88:	ffcc2603          	lw	a2,-4(s8)
    3a8c:	01f64fb3          	xor	t6,a2,t6
    3a90:	01f82623          	sw	t6,12(a6)
    to_bit_interleaving(x0, U64BIG(*(u64*)c));
    3a94:	ff0c2683          	lw	a3,-16(s8)
    3a98:	ff4c2603          	lw	a2,-12(s8)
    to_bit_interleaving(x1, U64BIG(*(u64*)(c + 8)));
    3a9c:	ff8c2083          	lw	ra,-8(s8)
    to_bit_interleaving(x0, U64BIG(*(u64*)c));
    3aa0:	0086d713          	srli	a4,a3,0x8
    3aa4:	01861f93          	slli	t6,a2,0x18
    3aa8:	00efe733          	or	a4,t6,a4
    3aac:	00861393          	slli	t2,a2,0x8
    3ab0:	0186df93          	srli	t6,a3,0x18
    3ab4:	01f3efb3          	or	t6,t2,t6
    3ab8:	00869393          	slli	t2,a3,0x8
    3abc:	007573b3          	and	t2,a0,t2
    3ac0:	01869693          	slli	a3,a3,0x18
    3ac4:	00d3e6b3          	or	a3,t2,a3
    3ac8:	00b773b3          	and	t2,a4,a1
    3acc:	0076e6b3          	or	a3,a3,t2
    3ad0:	00e7f733          	and	a4,a5,a4
    3ad4:	0ffff393          	andi	t2,t6,255
    3ad8:	01f57fb3          	and	t6,a0,t6
    3adc:	01f76733          	or	a4,a4,t6
    3ae0:	00865293          	srli	t0,a2,0x8
    3ae4:	01865613          	srli	a2,a2,0x18
    3ae8:	00b2f2b3          	and	t0,t0,a1
    3aec:	00c76633          	or	a2,a4,a2
    3af0:	00566633          	or	a2,a2,t0
    3af4:	0076e6b3          	or	a3,a3,t2
    3af8:	00165393          	srli	t2,a2,0x1
    3afc:	00c3c3b3          	xor	t2,t2,a2
    3b00:	01b3f3b3          	and	t2,t2,s11
    3b04:	007642b3          	xor	t0,a2,t2
    3b08:	00139393          	slli	t2,t2,0x1
    3b0c:	0053c2b3          	xor	t0,t2,t0
    3b10:	0022d713          	srli	a4,t0,0x2
    3b14:	00574733          	xor	a4,a4,t0
    3b18:	01a77733          	and	a4,a4,s10
    3b1c:	00e2cfb3          	xor	t6,t0,a4
    3b20:	00271713          	slli	a4,a4,0x2
    3b24:	01f74fb3          	xor	t6,a4,t6
    3b28:	004fd293          	srli	t0,t6,0x4
    3b2c:	01f2c2b3          	xor	t0,t0,t6
    3b30:	0192f2b3          	and	t0,t0,s9
    3b34:	005fc633          	xor	a2,t6,t0
    3b38:	00429293          	slli	t0,t0,0x4
    3b3c:	00c2c633          	xor	a2,t0,a2
    3b40:	00865f93          	srli	t6,a2,0x8
    3b44:	00cfcfb3          	xor	t6,t6,a2
    3b48:	00bfffb3          	and	t6,t6,a1
    3b4c:	01f64733          	xor	a4,a2,t6
    3b50:	0016d613          	srli	a2,a3,0x1
    3b54:	00d64633          	xor	a2,a2,a3
    3b58:	01b67633          	and	a2,a2,s11
    3b5c:	00c6c6b3          	xor	a3,a3,a2
    3b60:	00161613          	slli	a2,a2,0x1
    3b64:	00d646b3          	xor	a3,a2,a3
    3b68:	008f9f93          	slli	t6,t6,0x8
    3b6c:	00efc733          	xor	a4,t6,a4
    3b70:	0026df93          	srli	t6,a3,0x2
    3b74:	00dfcfb3          	xor	t6,t6,a3
    3b78:	01afffb3          	and	t6,t6,s10
    3b7c:	01f6c6b3          	xor	a3,a3,t6
    3b80:	002f9f93          	slli	t6,t6,0x2
    3b84:	00dfc6b3          	xor	a3,t6,a3
    3b88:	0046df93          	srli	t6,a3,0x4
    3b8c:	00dfcfb3          	xor	t6,t6,a3
    3b90:	019fffb3          	and	t6,t6,s9
    3b94:	01f6c6b3          	xor	a3,a3,t6
    3b98:	004f9f93          	slli	t6,t6,0x4
    3b9c:	00dfc633          	xor	a2,t6,a3
    3ba0:	00865f93          	srli	t6,a2,0x8
    3ba4:	00cfcfb3          	xor	t6,t6,a2
    3ba8:	00bfffb3          	and	t6,t6,a1
    3bac:	01f646b3          	xor	a3,a2,t6
    3bb0:	008f9f93          	slli	t6,t6,0x8
    3bb4:	00dfc6b3          	xor	a3,t6,a3
    3bb8:	ffff0637          	lui	a2,0xffff0
    3bbc:	00c6f2b3          	and	t0,a3,a2
    3bc0:	01075f93          	srli	t6,a4,0x10
    3bc4:	01069693          	slli	a3,a3,0x10
    3bc8:	01d77733          	and	a4,a4,t4
    3bcc:	00d76733          	or	a4,a4,a3
    to_bit_interleaving(x1, U64BIG(*(u64*)(c + 8)));
    3bd0:	ffcc2683          	lw	a3,-4(s8)
    to_bit_interleaving(x0, U64BIG(*(u64*)c));
    3bd4:	005fefb3          	or	t6,t6,t0
    s_e[0] = x0.e; 
    3bd8:	04e12e23          	sw	a4,92(sp)
    to_bit_interleaving(x1, U64BIG(*(u64*)(c + 8)));
    3bdc:	0080d293          	srli	t0,ra,0x8
    3be0:	01869713          	slli	a4,a3,0x18
    3be4:	005762b3          	or	t0,a4,t0
    s_o[0] = x0.o;
    3be8:	05f12423          	sw	t6,72(sp)
    to_bit_interleaving(x1, U64BIG(*(u64*)(c + 8)));
    3bec:	00869713          	slli	a4,a3,0x8
    3bf0:	0180df93          	srli	t6,ra,0x18
    3bf4:	01f76fb3          	or	t6,a4,t6
    3bf8:	00809993          	slli	s3,ra,0x8
    3bfc:	0057f7b3          	and	a5,a5,t0
    3c00:	013579b3          	and	s3,a0,s3
    3c04:	01f57533          	and	a0,a0,t6
    3c08:	00a7e7b3          	or	a5,a5,a0
    3c0c:	0086d393          	srli	t2,a3,0x8
    3c10:	01809093          	slli	ra,ra,0x18
    3c14:	0186d693          	srli	a3,a3,0x18
    3c18:	00b2f733          	and	a4,t0,a1
    3c1c:	00b3f3b3          	and	t2,t2,a1
    3c20:	0019e0b3          	or	ra,s3,ra
    3c24:	00d7e6b3          	or	a3,a5,a3
    3c28:	0076e6b3          	or	a3,a3,t2
    3c2c:	00e0e733          	or	a4,ra,a4
    3c30:	0ffff093          	andi	ra,t6,255
    3c34:	00176733          	or	a4,a4,ra
    3c38:	0016d093          	srli	ra,a3,0x1
    3c3c:	00d0c0b3          	xor	ra,ra,a3
    3c40:	01b0f0b3          	and	ra,ra,s11
    3c44:	0016c3b3          	xor	t2,a3,ra
    3c48:	00109693          	slli	a3,ra,0x1
    3c4c:	0076c6b3          	xor	a3,a3,t2
    3c50:	0026d793          	srli	a5,a3,0x2
    3c54:	00d7c7b3          	xor	a5,a5,a3
    3c58:	01a7f7b3          	and	a5,a5,s10
    3c5c:	00f6c3b3          	xor	t2,a3,a5
    3c60:	00279693          	slli	a3,a5,0x2
    3c64:	0076c6b3          	xor	a3,a3,t2
    3c68:	0046d513          	srli	a0,a3,0x4
    3c6c:	00d54533          	xor	a0,a0,a3
    3c70:	01957533          	and	a0,a0,s9
    3c74:	00a6c7b3          	xor	a5,a3,a0
    3c78:	00451693          	slli	a3,a0,0x4
    3c7c:	00f6c6b3          	xor	a3,a3,a5
    3c80:	0086d793          	srli	a5,a3,0x8
    3c84:	00d7c7b3          	xor	a5,a5,a3
    3c88:	00b7f7b3          	and	a5,a5,a1
    3c8c:	00f6c6b3          	xor	a3,a3,a5
    3c90:	00879793          	slli	a5,a5,0x8
    3c94:	00d7c7b3          	xor	a5,a5,a3
    3c98:	00175693          	srli	a3,a4,0x1
    3c9c:	00e6c6b3          	xor	a3,a3,a4
    3ca0:	01b6f6b3          	and	a3,a3,s11
    3ca4:	00d74733          	xor	a4,a4,a3
    3ca8:	00169693          	slli	a3,a3,0x1
    3cac:	00e6c733          	xor	a4,a3,a4
    3cb0:	00275693          	srli	a3,a4,0x2
    3cb4:	00e6c6b3          	xor	a3,a3,a4
    3cb8:	01a6f6b3          	and	a3,a3,s10
    3cbc:	00d740b3          	xor	ra,a4,a3
    3cc0:	00269713          	slli	a4,a3,0x2
    3cc4:	00174733          	xor	a4,a4,ra
    3cc8:	00475693          	srli	a3,a4,0x4
    3ccc:	00e6c6b3          	xor	a3,a3,a4
    3cd0:	0196f6b3          	and	a3,a3,s9
    3cd4:	00d74533          	xor	a0,a4,a3
    3cd8:	00469713          	slli	a4,a3,0x4
    3cdc:	00a74733          	xor	a4,a4,a0
    3ce0:	00875693          	srli	a3,a4,0x8
    3ce4:	00e6c6b3          	xor	a3,a3,a4
    3ce8:	00b6f5b3          	and	a1,a3,a1
    3cec:	00b74733          	xor	a4,a4,a1
    3cf0:	00859593          	slli	a1,a1,0x8
    3cf4:	00e5c733          	xor	a4,a1,a4
    3cf8:	0107d693          	srli	a3,a5,0x10
    3cfc:	00c77633          	and	a2,a4,a2
    3d00:	01d7f7b3          	and	a5,a5,t4
    3d04:	00c6e633          	or	a2,a3,a2
    3d08:	01071713          	slli	a4,a4,0x10
    3d0c:	00e7e733          	or	a4,a5,a4
    s_o[1] = x1.o;
    3d10:	04c12623          	sw	a2,76(sp)
    P8();
    3d14:	04810693          	addi	a3,sp,72
    3d18:	05c10613          	addi	a2,sp,92
    3d1c:	00c00593          	li	a1,12
    3d20:	00600513          	li	a0,6
    s_e[1] = x1.e; 
    3d24:	06e12023          	sw	a4,96(sp)
    P8();
    3d28:	950fe0ef          	jal	ra,1e78 <ROUND>
    3d2c:	04810693          	addi	a3,sp,72
    3d30:	05c10613          	addi	a2,sp,92
    3d34:	00c00593          	li	a1,12
    3d38:	00300513          	li	a0,3
    3d3c:	93cfe0ef          	jal	ra,1e78 <ROUND>
    3d40:	04810693          	addi	a3,sp,72
    3d44:	05c10613          	addi	a2,sp,92
    3d48:	00900593          	li	a1,9
    3d4c:	00600513          	li	a0,6
    3d50:	928fe0ef          	jal	ra,1e78 <ROUND>
    3d54:	04810693          	addi	a3,sp,72
    3d58:	05c10613          	addi	a2,sp,92
    3d5c:	00900593          	li	a1,9
    3d60:	00300513          	li	a0,3
    3d64:	914fe0ef          	jal	ra,1e78 <ROUND>
    3d68:	04810693          	addi	a3,sp,72
    3d6c:	05c10613          	addi	a2,sp,92
    3d70:	00600593          	li	a1,6
    3d74:	00c00513          	li	a0,12
    3d78:	900fe0ef          	jal	ra,1e78 <ROUND>
    3d7c:	04810693          	addi	a3,sp,72
    3d80:	05c10613          	addi	a2,sp,92
    3d84:	00600593          	li	a1,6
    3d88:	00900513          	li	a0,9
    3d8c:	8ecfe0ef          	jal	ra,1e78 <ROUND>
    3d90:	04810693          	addi	a3,sp,72
    3d94:	05c10613          	addi	a2,sp,92
    3d98:	00300593          	li	a1,3
    3d9c:	00c00513          	li	a0,12
    3da0:	8d8fe0ef          	jal	ra,1e78 <ROUND>
    3da4:	04810693          	addi	a3,sp,72
    3da8:	05c10613          	addi	a2,sp,92
    3dac:	00300593          	li	a1,3
    3db0:	00900513          	li	a0,9
    3db4:	8c4fe0ef          	jal	ra,1e78 <ROUND>
    c += RATE;
    3db8:	444447b7          	lui	a5,0x44444
    m += RATE;
    3dbc:	02012803          	lw	a6,32(sp)
    c += RATE;
    3dc0:	44478e13          	addi	t3,a5,1092 # 44444444 <_stack_start+0x4442e23c>
    3dc4:	303037b7          	lui	a5,0x30303
    3dc8:	03078313          	addi	t1,a5,48 # 30303030 <_stack_start+0x302ece28>
    3dcc:	0f0017b7          	lui	a5,0xf001
    3dd0:	f0078893          	addi	a7,a5,-256 # f000f00 <_stack_start+0xefeacf8>
    3dd4:	000107b7          	lui	a5,0x10
    m += RATE;
    3dd8:	01080813          	addi	a6,a6,16
    c += RATE;
    3ddc:	00010f37          	lui	t5,0x10
    3de0:	fff78e93          	addi	t4,a5,-1 # ffff <_bss_end+0xbd8f>
    3de4:	bc1fe06f          	j	29a4 <crypto_aead_decrypt+0x7c8>
    if (i < 8) {
    3de8:	0004cc83          	lbu	s9,0(s1)
    3dec:	01bc0933          	add	s2,s8,s11
    3df0:	07bd6663          	bltu	s10,s11,3e5c <crypto_aead_decrypt+0x1c80>
      *m = EXT_BYTE64(tmp0, i) ^ *c;
    3df4:	41b00633          	neg	a2,s11
    3df8:	00361613          	slli	a2,a2,0x3
    3dfc:	03860613          	addi	a2,a2,56 # ffff0038 <_stack_start+0xfffd9e30>
    3e00:	000a8513          	mv	a0,s5
    3e04:	000b8593          	mv	a1,s7
    3e08:	02c12023          	sw	a2,32(sp)
    3e0c:	270000ef          	jal	ra,407c <__lshrdi3>
      tmp0 &= ~INS_BYTE64(0xff, i);
    3e10:	02012603          	lw	a2,32(sp)
      *m = EXT_BYTE64(tmp0, i) ^ *c;
    3e14:	01954cb3          	xor	s9,a0,s9
    3e18:	01990023          	sb	s9,0(s2)
      tmp0 &= ~INS_BYTE64(0xff, i);
    3e1c:	0ff00513          	li	a0,255
    3e20:	00000593          	li	a1,0
    3e24:	282000ef          	jal	ra,40a6 <__ashldi3>
    3e28:	fff54513          	not	a0,a0
    3e2c:	01557ab3          	and	s5,a0,s5
      tmp0 |= INS_BYTE64(*c, i);
    3e30:	02012603          	lw	a2,32(sp)
    3e34:	0004c503          	lbu	a0,0(s1)
      tmp0 &= ~INS_BYTE64(0xff, i);
    3e38:	fff5c593          	not	a1,a1
    3e3c:	0175fbb3          	and	s7,a1,s7
      tmp0 |= INS_BYTE64(*c, i);
    3e40:	00000593          	li	a1,0
    3e44:	262000ef          	jal	ra,40a6 <__ashldi3>
    3e48:	01556ab3          	or	s5,a0,s5
    3e4c:	0175ebb3          	or	s7,a1,s7
  for (i = 0; i < clen; ++i, ++m, ++c) {
    3e50:	001d8d93          	addi	s11,s11,1
    3e54:	00148493          	addi	s1,s1,1
    3e58:	dd1fe06f          	j	2c28 <crypto_aead_decrypt+0xa4c>
      *m = EXT_BYTE64(tmp1, i % 8) ^ *c;
    3e5c:	fffdc613          	not	a2,s11
    3e60:	00767613          	andi	a2,a2,7
    3e64:	00361613          	slli	a2,a2,0x3
    3e68:	00098513          	mv	a0,s3
    3e6c:	000b0593          	mv	a1,s6
    3e70:	02c12023          	sw	a2,32(sp)
    3e74:	208000ef          	jal	ra,407c <__lshrdi3>
      tmp1 &= ~INS_BYTE64(0xff, i % 8);
    3e78:	02012603          	lw	a2,32(sp)
      *m = EXT_BYTE64(tmp1, i % 8) ^ *c;
    3e7c:	01954cb3          	xor	s9,a0,s9
    3e80:	01990023          	sb	s9,0(s2)
      tmp1 &= ~INS_BYTE64(0xff, i % 8);
    3e84:	0ff00513          	li	a0,255
    3e88:	00000593          	li	a1,0
    3e8c:	21a000ef          	jal	ra,40a6 <__ashldi3>
    3e90:	fff54513          	not	a0,a0
    3e94:	013579b3          	and	s3,a0,s3
      tmp1 |= INS_BYTE64(*c, i % 8);
    3e98:	02012603          	lw	a2,32(sp)
    3e9c:	0004c503          	lbu	a0,0(s1)
      tmp1 &= ~INS_BYTE64(0xff, i % 8);
    3ea0:	fff5c593          	not	a1,a1
    3ea4:	0165fb33          	and	s6,a1,s6
      tmp1 |= INS_BYTE64(*c, i % 8);
    3ea8:	00000593          	li	a1,0
    3eac:	1fa000ef          	jal	ra,40a6 <__ashldi3>
    3eb0:	013569b3          	or	s3,a0,s3
    3eb4:	0165eb33          	or	s6,a1,s6
    3eb8:	f99ff06f          	j	3e50 <crypto_aead_decrypt+0x1c74>
    tmp1 ^= INS_BYTE64(0x80, clen % 8);
    3ebc:	fff44613          	not	a2,s0
    3ec0:	00767613          	andi	a2,a2,7
    3ec4:	00361613          	slli	a2,a2,0x3
    3ec8:	08000513          	li	a0,128
    3ecc:	00000593          	li	a1,0
    3ed0:	1d6000ef          	jal	ra,40a6 <__ashldi3>
    3ed4:	00a9c9b3          	xor	s3,s3,a0
    3ed8:	00bb4b33          	xor	s6,s6,a1
    3edc:	d85fe06f          	j	2c60 <crypto_aead_decrypt+0xa84>

00003ee0 <default_exc_handler>:
  jal x0, default_exc_handler
    3ee0:	0000006f          	j	3ee0 <default_exc_handler>

00003ee4 <reset_handler>:
  mv  x1, x0
    3ee4:	00000093          	li	ra,0
  mv  x2, x1
    3ee8:	00008113          	mv	sp,ra
  mv  x3, x1
    3eec:	00008193          	mv	gp,ra
  mv  x4, x1
    3ef0:	00008213          	mv	tp,ra
  mv  x5, x1
    3ef4:	00008293          	mv	t0,ra
  mv  x6, x1
    3ef8:	00008313          	mv	t1,ra
  mv  x7, x1
    3efc:	00008393          	mv	t2,ra
  mv  x8, x1
    3f00:	00008413          	mv	s0,ra
  mv  x9, x1
    3f04:	00008493          	mv	s1,ra
  mv x10, x1
    3f08:	00008513          	mv	a0,ra
  mv x11, x1
    3f0c:	00008593          	mv	a1,ra
  mv x12, x1
    3f10:	00008613          	mv	a2,ra
  mv x13, x1
    3f14:	00008693          	mv	a3,ra
  mv x14, x1
    3f18:	00008713          	mv	a4,ra
  mv x15, x1
    3f1c:	00008793          	mv	a5,ra
  mv x16, x1
    3f20:	00008813          	mv	a6,ra
  mv x17, x1
    3f24:	00008893          	mv	a7,ra
  mv x18, x1
    3f28:	00008913          	mv	s2,ra
  mv x19, x1
    3f2c:	00008993          	mv	s3,ra
  mv x20, x1
    3f30:	00008a13          	mv	s4,ra
  mv x21, x1
    3f34:	00008a93          	mv	s5,ra
  mv x22, x1
    3f38:	00008b13          	mv	s6,ra
  mv x23, x1
    3f3c:	00008b93          	mv	s7,ra
  mv x24, x1
    3f40:	00008c13          	mv	s8,ra
  mv x25, x1
    3f44:	00008c93          	mv	s9,ra
  mv x26, x1
    3f48:	00008d13          	mv	s10,ra
  mv x27, x1
    3f4c:	00008d93          	mv	s11,ra
  mv x28, x1
    3f50:	00008e13          	mv	t3,ra
  mv x29, x1
    3f54:	00008e93          	mv	t4,ra
  mv x30, x1
    3f58:	00008f13          	mv	t5,ra
  mv x31, x1
    3f5c:	00008f93          	mv	t6,ra
  la   x2, _stack_start
    3f60:	00012117          	auipc	sp,0x12
    3f64:	2a810113          	addi	sp,sp,680 # 16208 <_stack_start>

00003f68 <_start>:
  la x26, _bss_start
    3f68:	00000d17          	auipc	s10,0x0
    3f6c:	308d0d13          	addi	s10,s10,776 # 4270 <_bss_end>
  la x27, _bss_end
    3f70:	00000d97          	auipc	s11,0x0
    3f74:	300d8d93          	addi	s11,s11,768 # 4270 <_bss_end>
  bge x26, x27, zero_loop_end
    3f78:	01bd5863          	bge	s10,s11,3f88 <main_entry>

00003f7c <zero_loop>:
  sw x0, 0(x26)
    3f7c:	000d2023          	sw	zero,0(s10)
  addi x26, x26, 4
    3f80:	004d0d13          	addi	s10,s10,4
  ble x26, x27, zero_loop
    3f84:	ffaddce3          	bge	s11,s10,3f7c <zero_loop>

00003f88 <main_entry>:
  addi x10, x0, 0
    3f88:	00000513          	li	a0,0
  addi x11, x0, 0
    3f8c:	00000593          	li	a1,0
  jal x1, main
    3f90:	18c000ef          	jal	ra,411c <main>

00003f94 <memcpy>:
    3f94:	00a5c7b3          	xor	a5,a1,a0
    3f98:	8b8d                	andi	a5,a5,3
    3f9a:	00c508b3          	add	a7,a0,a2
    3f9e:	eba1                	bnez	a5,3fee <memcpy+0x5a>
    3fa0:	478d                	li	a5,3
    3fa2:	04c7f663          	bgeu	a5,a2,3fee <memcpy+0x5a>
    3fa6:	00357793          	andi	a5,a0,3
    3faa:	872a                	mv	a4,a0
    3fac:	e7cd                	bnez	a5,4056 <_stack_len+0x56>
    3fae:	ffc8f613          	andi	a2,a7,-4
    3fb2:	40e606b3          	sub	a3,a2,a4
    3fb6:	02000793          	li	a5,32
    3fba:	02000293          	li	t0,32
    3fbe:	04d7c463          	blt	a5,a3,4006 <_stack_len+0x6>
    3fc2:	86ae                	mv	a3,a1
    3fc4:	87ba                	mv	a5,a4
    3fc6:	02c77163          	bgeu	a4,a2,3fe8 <memcpy+0x54>
    3fca:	0006a803          	lw	a6,0(a3)
    3fce:	0791                	addi	a5,a5,4
    3fd0:	0691                	addi	a3,a3,4
    3fd2:	ff07ae23          	sw	a6,-4(a5)
    3fd6:	fec7eae3          	bltu	a5,a2,3fca <memcpy+0x36>
    3fda:	fff60793          	addi	a5,a2,-1
    3fde:	8f99                	sub	a5,a5,a4
    3fe0:	9bf1                	andi	a5,a5,-4
    3fe2:	0791                	addi	a5,a5,4
    3fe4:	973e                	add	a4,a4,a5
    3fe6:	95be                	add	a1,a1,a5
    3fe8:	01176663          	bltu	a4,a7,3ff4 <memcpy+0x60>
    3fec:	8082                	ret
    3fee:	872a                	mv	a4,a0
    3ff0:	ff157ee3          	bgeu	a0,a7,3fec <memcpy+0x58>
    3ff4:	0005c783          	lbu	a5,0(a1)
    3ff8:	0705                	addi	a4,a4,1
    3ffa:	0585                	addi	a1,a1,1
    3ffc:	fef70fa3          	sb	a5,-1(a4)
    4000:	ff176ae3          	bltu	a4,a7,3ff4 <memcpy+0x60>
    4004:	8082                	ret
    4006:	41d4                	lw	a3,4(a1)
    4008:	4ddc                	lw	a5,28(a1)
    400a:	0005af83          	lw	t6,0(a1)
    400e:	0085af03          	lw	t5,8(a1)
    4012:	00c5ae83          	lw	t4,12(a1)
    4016:	0105ae03          	lw	t3,16(a1)
    401a:	0145a303          	lw	t1,20(a1)
    401e:	0185a803          	lw	a6,24(a1)
    4022:	c354                	sw	a3,4(a4)
    4024:	5194                	lw	a3,32(a1)
    4026:	01f72023          	sw	t6,0(a4)
    402a:	01e72423          	sw	t5,8(a4)
    402e:	01d72623          	sw	t4,12(a4)
    4032:	01c72823          	sw	t3,16(a4)
    4036:	00672a23          	sw	t1,20(a4)
    403a:	01072c23          	sw	a6,24(a4)
    403e:	cf5c                	sw	a5,28(a4)
    4040:	02470713          	addi	a4,a4,36
    4044:	40e607b3          	sub	a5,a2,a4
    4048:	fed72e23          	sw	a3,-4(a4)
    404c:	02458593          	addi	a1,a1,36
    4050:	faf2cbe3          	blt	t0,a5,4006 <_stack_len+0x6>
    4054:	b7bd                	j	3fc2 <memcpy+0x2e>
    4056:	0005c683          	lbu	a3,0(a1)
    405a:	0705                	addi	a4,a4,1
    405c:	00377793          	andi	a5,a4,3
    4060:	fed70fa3          	sb	a3,-1(a4)
    4064:	0585                	addi	a1,a1,1
    4066:	d7a1                	beqz	a5,3fae <memcpy+0x1a>
    4068:	0005c683          	lbu	a3,0(a1)
    406c:	0705                	addi	a4,a4,1
    406e:	00377793          	andi	a5,a4,3
    4072:	fed70fa3          	sb	a3,-1(a4)
    4076:	0585                	addi	a1,a1,1
    4078:	fff9                	bnez	a5,4056 <_stack_len+0x56>
    407a:	bf15                	j	3fae <memcpy+0x1a>

0000407c <__lshrdi3>:
   parameter b will be promoted to int if shift_count_type is smaller than an int.  */
#ifdef L_lshrdi3
DWtype
__lshrdi3 (DWtype u, shift_count_type b)
{
  if (b == 0)
    407c:	ce01                	beqz	a2,4094 <__lshrdi3+0x18>
    return u;

  const DWunion uu = {.ll = u};
  const shift_count_type bm = W_TYPE_SIZE - b;
    407e:	02000793          	li	a5,32
    4082:	8f91                	sub	a5,a5,a2
  DWunion w;

  if (bm <= 0)
    4084:	00f04963          	bgtz	a5,4096 <__lshrdi3+0x1a>
    {
      w.s.high = 0;
      w.s.low = (UWtype) uu.s.high >> -bm;
    4088:	fe060513          	addi	a0,a2,-32
      w.s.high = 0;
    408c:	4701                	li	a4,0
      w.s.low = (UWtype) uu.s.high >> -bm;
    408e:	00a5d533          	srl	a0,a1,a0

      w.s.high = (UWtype) uu.s.high >> b;
      w.s.low = ((UWtype) uu.s.low >> b) | carries;
    }

  return w.ll;
    4092:	85ba                	mv	a1,a4
}
    4094:	8082                	ret
      w.s.high = (UWtype) uu.s.high >> b;
    4096:	00c5d733          	srl	a4,a1,a2
      w.s.low = ((UWtype) uu.s.low >> b) | carries;
    409a:	00c55533          	srl	a0,a0,a2
      const UWtype carries = (UWtype) uu.s.high << bm;
    409e:	00f595b3          	sll	a1,a1,a5
      w.s.low = ((UWtype) uu.s.low >> b) | carries;
    40a2:	8d4d                	or	a0,a0,a1
    40a4:	b7fd                	j	4092 <__lshrdi3+0x16>

000040a6 <__ashldi3>:

#ifdef L_ashldi3
DWtype
__ashldi3 (DWtype u, shift_count_type b)
{
  if (b == 0)
    40a6:	ce01                	beqz	a2,40be <__ashldi3+0x18>
    return u;

  const DWunion uu = {.ll = u};
  const shift_count_type bm = W_TYPE_SIZE - b;
    40a8:	02000793          	li	a5,32
    40ac:	8f91                	sub	a5,a5,a2
  DWunion w;

  if (bm <= 0)
    40ae:	00f04963          	bgtz	a5,40c0 <__ashldi3+0x1a>
    {
      w.s.low = 0;
      w.s.high = (UWtype) uu.s.low << -bm;
    40b2:	fe060593          	addi	a1,a2,-32
      w.s.low = 0;
    40b6:	4701                	li	a4,0
      w.s.high = (UWtype) uu.s.low << -bm;
    40b8:	00b515b3          	sll	a1,a0,a1

      w.s.low = (UWtype) uu.s.low << b;
      w.s.high = ((UWtype) uu.s.high << b) | carries;
    }

  return w.ll;
    40bc:	853a                	mv	a0,a4
}
    40be:	8082                	ret
      w.s.low = (UWtype) uu.s.low << b;
    40c0:	00c51733          	sll	a4,a0,a2
      w.s.high = ((UWtype) uu.s.high << b) | carries;
    40c4:	00c595b3          	sll	a1,a1,a2
      const UWtype carries = (UWtype) uu.s.low >> bm;
    40c8:	00f55533          	srl	a0,a0,a5
      w.s.high = ((UWtype) uu.s.high << b) | carries;
    40cc:	8dc9                	or	a1,a1,a0
    40ce:	b7fd                	j	40bc <__ashldi3+0x16>

000040d0 <__muldi3>:
# define __multi3 __muldi3
#endif

DWtype
__multi3 (DWtype u, DWtype v)
{
    40d0:	882a                	mv	a6,a0
    40d2:	872e                	mv	a4,a1
  const DWunion uu = {.ll = u};
  const DWunion vv = {.ll = v};
  DWunion w;
  UWtype u_low = uu.s.low;
    40d4:	832a                	mv	t1,a0
  UWtype v_low = vv.s.low;
    40d6:	88b2                	mv	a7,a2
  UWtype u_low_msb;
  UWtype w_low = 0;
  UWtype new_w_low;
  UWtype w_high = 0;
  UWtype w_high_tmp = 0;
    40d8:	4781                	li	a5,0
  UWtype w_high = 0;
    40da:	4581                	li	a1,0
  UWtype w_low = 0;
    40dc:	4501                	li	a0,0
  do
    {
      new_w_low = w_low + u_low;
      w_high_tmp2x = w_high_tmp << 1;
      w_high_tmp += w_high;
      if (v_low & 1)
    40de:	0018fe13          	andi	t3,a7,1
      w_high_tmp2x = w_high_tmp << 1;
    40e2:	00179e93          	slli	t4,a5,0x1
      if (v_low & 1)
    40e6:	000e0963          	beqz	t3,40f8 <__muldi3+0x28>
      new_w_low = w_low + u_low;
    40ea:	00a30e33          	add	t3,t1,a0
      w_high_tmp += w_high;
    40ee:	95be                	add	a1,a1,a5
	{
	  carry = new_w_low < w_low;
    40f0:	00ae37b3          	sltu	a5,t3,a0
	  w_low = new_w_low;
	  w_high = carry + w_high_tmp;
    40f4:	95be                	add	a1,a1,a5
	  w_low = new_w_low;
    40f6:	8572                	mv	a0,t3
	}
      u_low_msb = (u_low >> ((sizeof (UWtype) * 8) - 1));
    40f8:	01f35793          	srli	a5,t1,0x1f
      v_low >>= 1;
    40fc:	0018d893          	srli	a7,a7,0x1
      u_low <<= 1;
      w_high_tmp = u_low_msb | w_high_tmp2x;
    4100:	00fee7b3          	or	a5,t4,a5
    4104:	0306                	slli	t1,t1,0x1
    }
  while (v_low);
    4106:	fc089ce3          	bnez	a7,40de <__muldi3+0xe>

  w.s.low = w_low;
  w.s.high = w_high;

  if (uu.s.high)
    410a:	c701                	beqz	a4,4112 <__muldi3+0x42>
    w.s.high = w.s.high + __muluw3(vv.s.low, uu.s.high);
    410c:	02c70733          	mul	a4,a4,a2
    4110:	95ba                	add	a1,a1,a4

  if (vv.s.high)
    4112:	c681                	beqz	a3,411a <__muldi3+0x4a>
    w.s.high += __muluw3(uu.s.low, vv.s.high);
    4114:	030686b3          	mul	a3,a3,a6
    4118:	95b6                	add	a1,a1,a3

  return w.ll;
}
    411a:	8082                	ret

0000411c <main>:
#include "api.h"
#include "ascon.h"
#include "permutations.h"

int main ()
{
    411c:	f6010113          	addi	sp,sp,-160
  int result;
  int alen = 0;
  int mlen = 0;
  int clen = 0;

  unsigned char a[] = "thisistheassociateddata.";
    4120:	01900613          	li	a2,25
    4124:	00000597          	auipc	a1,0x0
    4128:	10c58593          	addi	a1,a1,268 # 4230 <__DTOR_END__+0x10>
    412c:	05410513          	addi	a0,sp,84
{
    4130:	08112e23          	sw	ra,156(sp)
    4134:	08812c23          	sw	s0,152(sp)
  int clen = 0;
    4138:	00012e23          	sw	zero,28(sp)
  unsigned char a[] = "thisistheassociateddata.";
    413c:	e59ff0ef          	jal	ra,3f94 <memcpy>
  unsigned char m[] = "thisisaplaintext";
    4140:	01100613          	li	a2,17
    4144:	00000597          	auipc	a1,0x0
    4148:	10858593          	addi	a1,a1,264 # 424c <__DTOR_END__+0x2c>
    414c:	04010513          	addi	a0,sp,64
    4150:	e45ff0ef          	jal	ra,3f94 <memcpy>
  unsigned char c[16 + CRYPTO_ABYTES];
  unsigned char nsec[CRYPTO_NSECBYTES];
  unsigned char npub[CRYPTO_NPUBBYTES] = {"thisisthenonce."};
    4154:	01000613          	li	a2,16
    4158:	00000597          	auipc	a1,0x0
    415c:	10858593          	addi	a1,a1,264 # 4260 <__DTOR_END__+0x40>
    4160:	02010513          	addi	a0,sp,32
    4164:	e31ff0ef          	jal	ra,3f94 <memcpy>
  unsigned char k[CRYPTO_KEYBYTES] = "thisisthekey.";   
    4168:	00e00613          	li	a2,14
    416c:	00000597          	auipc	a1,0x0
    4170:	0b458593          	addi	a1,a1,180 # 4220 <__DTOR_END__>
    4174:	03010513          	addi	a0,sp,48
    4178:	e1dff0ef          	jal	ra,3f94 <memcpy>

  alen = 24;
  mlen = 16;
    417c:	01000793          	li	a5,16
    4180:	00f12c23          	sw	a5,24(sp)
  clen = 0;

  result |= crypto_aead_encrypt(c, &clen, m, mlen, a, alen, nsec, npub, k);
    4184:	03010793          	addi	a5,sp,48
    4188:	01410413          	addi	s0,sp,20
    418c:	00f12423          	sw	a5,8(sp)
    4190:	02010793          	addi	a5,sp,32
    4194:	00f12223          	sw	a5,4(sp)
    4198:	00812023          	sw	s0,0(sp)
    419c:	05410793          	addi	a5,sp,84
    41a0:	04010613          	addi	a2,sp,64
    41a4:	01c10593          	addi	a1,sp,28
    41a8:	01800813          	li	a6,24
    41ac:	00000893          	li	a7,0
    41b0:	01000693          	li	a3,16
    41b4:	00000713          	li	a4,0
    41b8:	07010513          	addi	a0,sp,112
  unsigned char k[CRYPTO_KEYBYTES] = "thisisthekey.";   
    41bc:	02011f23          	sh	zero,62(sp)
  result |= crypto_aead_encrypt(c, &clen, m, mlen, a, alen, nsec, npub, k);
    41c0:	ecdfb0ef          	jal	ra,8c <crypto_aead_encrypt>
  
  result |= crypto_aead_decrypt(m, &mlen, nsec, c, clen, a, alen, npub, k);
    41c4:	01c12703          	lw	a4,28(sp)
    41c8:	03010793          	addi	a5,sp,48
    41cc:	00f12423          	sw	a5,8(sp)
    41d0:	02010793          	addi	a5,sp,32
    41d4:	00f12223          	sw	a5,4(sp)
    41d8:	00012023          	sw	zero,0(sp)
    41dc:	05410813          	addi	a6,sp,84
    41e0:	07010693          	addi	a3,sp,112
    41e4:	00040613          	mv	a2,s0
    41e8:	01810593          	addi	a1,sp,24
    41ec:	04010513          	addi	a0,sp,64
    41f0:	01800893          	li	a7,24
    41f4:	41f75793          	srai	a5,a4,0x1f
    41f8:	fe5fd0ef          	jal	ra,21dc <crypto_aead_decrypt>
  
  return 0;
    41fc:	09c12083          	lw	ra,156(sp)
    4200:	09812403          	lw	s0,152(sp)
    4204:	00000513          	li	a0,0
    4208:	0a010113          	addi	sp,sp,160
    420c:	00008067          	ret

00004210 <__CTOR_LIST__>:
	...

00004218 <__CTOR_END__>:
	...
